ffff ff       ???
0000 ff       ???
0001 ff       ???
0002 ff       ???
0003 ff       ???
0004 ff       ???
0005 ff       ???
0006 ff       ???
0007 ff       ???
0008 ff       ???
0009 ff       ???
000a ff       ???
000b ff       ???
000c ff       ???
000d ff       ???
000e ff       ???
000f ff       ???
0010 ff       ???
0011 ff       ???
0012 ff       ???
0013 ff       ???
0014 ff       ???
0015 ff       ???
0016 ff       ???
0017 ff       ???
0018 ff       ???
0019 ff       ???
001a ff       ???
001b ff       ???
001c ff       ???
001d ff       ???
001e ff       ???
001f ff       ???
0020 ff       ???
0021 ff       ???
0022 ff       ???
0023 ff       ???
0024 ff       ???
0025 ff       ???
0026 ff       ???
0027 ff       ???
0028 ff       ???
0029 ff       ???
002a ff       ???
002b ff       ???
002c ff       ???
002d ff       ???
002e ff       ???
002f ff       ???
0030 ff       ???
0031 ff       ???
0032 ff       ???
0033 ff       ???
0034 ff       ???
0035 ff       ???
0036 ff       ???
0037 ff       ???
0038 ff       ???
0039 ff       ???
003a ff       ???
003b ff       ???
003c ff       ???
003d ff       ???
003e ff       ???
003f ff       ???
0040 ff       ???
0041 ff       ???
0042 ff       ???
0043 ff       ???
0044 ff       ???
0045 ff       ???
0046 ff       ???
0047 ff       ???
0048 ff       ???
0049 ff       ???
004a ff       ???
004b ff       ???
004c ff       ???
004d ff       ???
004e ff       ???
004f ff       ???
0050 ff       ???
0051 ff       ???
0052 ff       ???
0053 ff       ???
0054 ff       ???
0055 ff       ???
0056 ff       ???
0057 ff       ???
0058 ff       ???
0059 ff       ???
005a ff       ???
005b ff       ???
005c ff       ???
005d ff       ???
005e ff       ???
005f ff       ???
0060 ff       ???
0061 ff       ???
0062 ff       ???
0063 ff       ???
0064 ff       ???
0065 ff       ???
0066 ff       ???
0067 ff       ???
0068 ff       ???
0069 ff       ???
006a ff       ???
006b ff       ???
006c ff       ???
006d ff       ???
006e ff       ???
006f ff       ???
0070 ff       ???
0071 ff       ???
0072 ff       ???
0073 ff       ???
0074 ff       ???
0075 ff       ???
0076 ff       ???
0077 ff       ???
0078 ff       ???
0079 ff       ???
007a ff       ???
007b ff       ???
007c ff       ???
007d ff       ???
007e ff       ???
007f ff       ???
0080 ff       ???
0081 ff       ???
0082 ff       ???
0083 ff       ???
0084 ff       ???
0085 ff       ???
0086 ff       ???
0087 ff       ???
0088 ff       ???
0089 ff       ???
008a ff       ???
008b ff       ???
008c ff       ???
008d ff       ???
008e ff       ???
008f ff       ???
0090 ff       ???
0091 ff       ???
0092 ff       ???
0093 ff       ???
0094 ff       ???
0095 ff       ???
0096 ff       ???
0097 ff       ???
0098 ff       ???
0099 ff       ???
009a ff       ???
009b ff       ???
009c ff       ???
009d ff       ???
009e ff       ???
009f ff       ???
00a0 ff       ???
00a1 ff       ???
00a2 ff       ???
00a3 ff       ???
00a4 ff       ???
00a5 ff       ???
00a6 ff       ???
00a7 ff       ???
00a8 ff       ???
00a9 ff       ???
00aa ff       ???
00ab ff       ???
00ac ff       ???
00ad ff       ???
00ae ff       ???
00af ff       ???
00b0 ff       ???
00b1 ff       ???
00b2 ff       ???
00b3 ff       ???
00b4 ff       ???
00b5 ff       ???
00b6 ff       ???
00b7 ff       ???
00b8 ff       ???
00b9 ff       ???
00ba ff       ???
00bb ff       ???
00bc ff       ???
00bd ff       ???
00be ff       ???
00bf ff       ???
00c0 ff       ???
00c1 ff       ???
00c2 ff       ???
00c3 ff       ???
00c4 ff       ???
00c5 ff       ???
00c6 ff       ???
00c7 ff       ???
00c8 ff       ???
00c9 ff       ???
00ca ff       ???
00cb ff       ???
00cc ff       ???
00cd ff       ???
00ce ff       ???
00cf ff       ???
00d0 ff       ???
00d1 ff       ???
00d2 ff       ???
00d3 ff       ???
00d4 ff       ???
00d5 ff       ???
00d6 ff       ???
00d7 ff       ???
00d8 ff       ???
00d9 ff       ???
00da ff       ???
00db ff       ???
00dc ff       ???
00dd ff       ???
00de ff       ???
00df ff       ???
00e0 ff       ???
00e1 ff       ???
00e2 ff       ???
00e3 ff       ???
00e4 ff       ???
00e5 ff       ???
00e6 ff       ???
00e7 ff       ???
00e8 ff       ???
00e9 ff       ???
00ea ff       ???
00eb ff       ???
00ec ff       ???
00ed ff       ???
00ee ff       ???
00ef ff       ???
00f0 ff       ???
00f1 ff       ???
00f2 ff       ???
00f3 ff       ???
00f4 ff       ???
00f5 ff       ???
00f6 ff       ???
00f7 ff       ???
00f8 ff       ???
00f9 ff       ???
00fa ff       ???
00fb ff       ???
00fc ff       ???
00fd ff       ???
00fe ff       ???
00ff ff       ???
0100 ff       ???
0101 ff       ???
0102 ff       ???
0103 ff       ???
0104 ff       ???
0105 ff       ???
0106 ff       ???
0107 ff       ???
0108 ff       ???
0109 ff       ???
010a ff       ???
010b ff       ???
010c ff       ???
010d ff       ???
010e ff       ???
010f ff       ???
0110 ff       ???
0111 ff       ???
0112 ff       ???
0113 ff       ???
0114 ff       ???
0115 ff       ???
0116 ff       ???
0117 ff       ???
0118 ff       ???
0119 ff       ???
011a ff       ???
011b ff       ???
011c ff       ???
011d ff       ???
011e ff       ???
011f ff       ???
0120 ff       ???
0121 ff       ???
0122 ff       ???
0123 ff       ???
0124 ff       ???
0125 ff       ???
0126 ff       ???
0127 ff       ???
0128 ff       ???
0129 ff       ???
012a ff       ???
012b ff       ???
012c ff       ???
012d ff       ???
012e ff       ???
012f ff       ???
0130 ff       ???
0131 ff       ???
0132 ff       ???
0133 ff       ???
0134 ff       ???
0135 ff       ???
0136 ff       ???
0137 ff       ???
0138 ff       ???
0139 ff       ???
013a ff       ???
013b ff       ???
013c ff       ???
013d ff       ???
013e ff       ???
013f ff       ???
0140 ff       ???
0141 ff       ???
0142 ff       ???
0143 ff       ???
0144 ff       ???
0145 ff       ???
0146 ff       ???
0147 ff       ???
0148 ff       ???
0149 ff       ???
014a ff       ???
014b ff       ???
014c ff       ???
014d ff       ???
014e ff       ???
014f ff       ???
0150 ff       ???
0151 ff       ???
0152 ff       ???
0153 ff       ???
0154 ff       ???
0155 ff       ???
0156 ff       ???
0157 ff       ???
0158 ff       ???
0159 ff       ???
015a ff       ???
015b ff       ???
015c ff       ???
015d ff       ???
015e ff       ???
015f ff       ???
0160 ff       ???
0161 ff       ???
0162 ff       ???
0163 ff       ???
0164 ff       ???
0165 ff       ???
0166 ff       ???
0167 ff       ???
0168 ff       ???
0169 ff       ???
016a ff       ???
016b ff       ???
016c ff       ???
016d ff       ???
016e ff       ???
016f ff       ???
0170 ff       ???
0171 ff       ???
0172 ff       ???
0173 ff       ???
0174 ff       ???
0175 ff       ???
0176 ff       ???
0177 ff       ???
0178 ff       ???
0179 ff       ???
017a ff       ???
017b ff       ???
017c ff       ???
017d ff       ???
017e ff       ???
017f ff       ???
0180 ff       ???
0181 ff       ???
0182 ff       ???
0183 ff       ???
0184 ff       ???
0185 ff       ???
0186 ff       ???
0187 ff       ???
0188 ff       ???
0189 ff       ???
018a ff       ???
018b ff       ???
018c ff       ???
018d ff       ???
018e ff       ???
018f ff       ???
0190 ff       ???
0191 ff       ???
0192 ff       ???
0193 ff       ???
0194 ff       ???
0195 ff       ???
0196 ff       ???
0197 ff       ???
0198 ff       ???
0199 ff       ???
019a ff       ???
019b ff       ???
019c ff       ???
019d ff       ???
019e ff       ???
019f ff       ???
01a0 ff       ???
01a1 ff       ???
01a2 ff       ???
01a3 ff       ???
01a4 ff       ???
01a5 ff       ???
01a6 ff       ???
01a7 ff       ???
01a8 ff       ???
01a9 ff       ???
01aa ff       ???
01ab ff       ???
01ac ff       ???
01ad ff       ???
01ae ff       ???
01af ff       ???
01b0 ff       ???
01b1 ff       ???
01b2 ff       ???
01b3 ff       ???
01b4 ff       ???
01b5 ff       ???
01b6 ff       ???
01b7 ff       ???
01b8 ff       ???
01b9 ff       ???
01ba ff       ???
01bb ff       ???
01bc ff       ???
01bd ff       ???
01be ff       ???
01bf ff       ???
01c0 ff       ???
01c1 ff       ???
01c2 ff       ???
01c3 ff       ???
01c4 ff       ???
01c5 ff       ???
01c6 ff       ???
01c7 ff       ???
01c8 ff       ???
01c9 ff       ???
01ca ff       ???
01cb ff       ???
01cc ff       ???
01cd ff       ???
01ce ff       ???
01cf ff       ???
01d0 ff       ???
01d1 ff       ???
01d2 ff       ???
01d3 ff       ???
01d4 ff       ???
01d5 ff       ???
01d6 ff       ???
01d7 ff       ???
01d8 ff       ???
01d9 ff       ???
01da ff       ???
01db ff       ???
01dc ff       ???
01dd ff       ???
01de ff       ???
01df ff       ???
01e0 ff       ???
01e1 ff       ???
01e2 ff       ???
01e3 ff       ???
01e4 ff       ???
01e5 ff       ???
01e6 ff       ???
01e7 ff       ???
01e8 ff       ???
01e9 ff       ???
01ea ff       ???
01eb ff       ???
01ec ff       ???
01ed ff       ???
01ee ff       ???
01ef ff       ???
01f0 ff       ???
01f1 ff       ???
01f2 ff       ???
01f3 ff       ???
01f4 ff       ???
01f5 ff       ???
01f6 ff       ???
01f7 ff       ???
01f8 ff       ???
01f9 ff       ???
01fa ff       ???
01fb ff       ???
01fc ff       ???
01fd ff       ???
01fe ff       ???
01ff ff       ???
0200 ff       ???
0201 ff       ???
0202 ff       ???
0203 ff       ???
0204 ff       ???
0205 ff       ???
0206 ff       ???
0207 ff       ???
0208 ff       ???
0209 ff       ???
020a ff       ???
020b ff       ???
020c ff       ???
020d ff       ???
020e ff       ???
020f ff       ???
0210 ff       ???
0211 ff       ???
0212 ff       ???
0213 ff       ???
0214 ff       ???
0215 ff       ???
0216 ff       ???
0217 ff       ???
0218 ff       ???
0219 ff       ???
021a ff       ???
021b ff       ???
021c ff       ???
021d ff       ???
021e ff       ???
021f ff       ???
0220 ff       ???
0221 ff       ???
0222 ff       ???
0223 ff       ???
0224 ff       ???
0225 ff       ???
0226 ff       ???
0227 ff       ???
0228 ff       ???
0229 ff       ???
022a ff       ???
022b ff       ???
022c ff       ???
022d ff       ???
022e ff       ???
022f ff       ???
0230 ff       ???
0231 ff       ???
0232 ff       ???
0233 ff       ???
0234 ff       ???
0235 ff       ???
0236 ff       ???
0237 ff       ???
0238 ff       ???
0239 ff       ???
023a ff       ???
023b ff       ???
023c ff       ???
023d ff       ???
023e ff       ???
023f ff       ???
0240 ff       ???
0241 ff       ???
0242 ff       ???
0243 ff       ???
0244 ff       ???
0245 ff       ???
0246 ff       ???
0247 ff       ???
0248 ff       ???
0249 ff       ???
024a ff       ???
024b ff       ???
024c ff       ???
024d ff       ???
024e ff       ???
024f ff       ???
0250 ff       ???
0251 ff       ???
0252 ff       ???
0253 ff       ???
0254 ff       ???
0255 ff       ???
0256 ff       ???
0257 ff       ???
0258 ff       ???
0259 ff       ???
025a ff       ???
025b ff       ???
025c ff       ???
025d ff       ???
025e ff       ???
025f ff       ???
0260 ff       ???
0261 ff       ???
0262 ff       ???
0263 ff       ???
0264 ff       ???
0265 ff       ???
0266 ff       ???
0267 ff       ???
0268 ff       ???
0269 ff       ???
026a ff       ???
026b ff       ???
026c ff       ???
026d ff       ???
026e ff       ???
026f ff       ???
0270 ff       ???
0271 ff       ???
0272 ff       ???
0273 ff       ???
0274 ff       ???
0275 ff       ???
0276 ff       ???
0277 ff       ???
0278 ff       ???
0279 ff       ???
027a ff       ???
027b ff       ???
027c ff       ???
027d ff       ???
027e ff       ???
027f ff       ???
0280 ff       ???
0281 ff       ???
0282 ff       ???
0283 ff       ???
0284 ff       ???
0285 ff       ???
0286 ff       ???
0287 ff       ???
0288 ff       ???
0289 ff       ???
028a ff       ???
028b ff       ???
028c ff       ???
028d ff       ???
028e ff       ???
028f ff       ???
0290 ff       ???
0291 ff       ???
0292 ff       ???
0293 ff       ???
0294 ff       ???
0295 ff       ???
0296 ff       ???
0297 ff       ???
0298 ff       ???
0299 ff       ???
029a ff       ???
029b ff       ???
029c ff       ???
029d ff       ???
029e ff       ???
029f ff       ???
02a0 ff       ???
02a1 ff       ???
02a2 ff       ???
02a3 ff       ???
02a4 ff       ???
02a5 ff       ???
02a6 ff       ???
02a7 ff       ???
02a8 ff       ???
02a9 ff       ???
02aa ff       ???
02ab ff       ???
02ac ff       ???
02ad ff       ???
02ae ff       ???
02af ff       ???
02b0 ff       ???
02b1 ff       ???
02b2 ff       ???
02b3 ff       ???
02b4 ff       ???
02b5 ff       ???
02b6 ff       ???
02b7 ff       ???
02b8 ff       ???
02b9 ff       ???
02ba ff       ???
02bb ff       ???
02bc ff       ???
02bd ff       ???
02be ff       ???
02bf ff       ???
02c0 ff       ???
02c1 ff       ???
02c2 ff       ???
02c3 ff       ???
02c4 ff       ???
02c5 ff       ???
02c6 ff       ???
02c7 ff       ???
02c8 ff       ???
02c9 ff       ???
02ca ff       ???
02cb ff       ???
02cc ff       ???
02cd ff       ???
02ce ff       ???
02cf ff       ???
02d0 ff       ???
02d1 ff       ???
02d2 ff       ???
02d3 ff       ???
02d4 ff       ???
02d5 ff       ???
02d6 ff       ???
02d7 ff       ???
02d8 ff       ???
02d9 ff       ???
02da ff       ???
02db ff       ???
02dc ff       ???
02dd ff       ???
02de ff       ???
02df ff       ???
02e0 ff       ???
02e1 ff       ???
02e2 ff       ???
02e3 ff       ???
02e4 ff       ???
02e5 ff       ???
02e6 ff       ???
02e7 ff       ???
02e8 ff       ???
02e9 ff       ???
02ea ff       ???
02eb ff       ???
02ec ff       ???
02ed ff       ???
02ee ff       ???
02ef ff       ???
02f0 ff       ???
02f1 ff       ???
02f2 ff       ???
02f3 ff       ???
02f4 ff       ???
02f5 ff       ???
02f6 ff       ???
02f7 ff       ???
02f8 ff       ???
02f9 ff       ???
02fa ff       ???
02fb ff       ???
02fc ff       ???
02fd ff       ???
02fe ff       ???
02ff ff       ???
0300 ff       ???
0301 ff       ???
0302 ff       ???
0303 ff       ???
0304 ff       ???
0305 ff       ???
0306 ff       ???
0307 ff       ???
0308 ff       ???
0309 ff       ???
030a ff       ???
030b ff       ???
030c ff       ???
030d ff       ???
030e ff       ???
030f ff       ???
0310 ff       ???
0311 ff       ???
0312 ff       ???
0313 ff       ???
0314 ff       ???
0315 ff       ???
0316 ff       ???
0317 ff       ???
0318 ff       ???
0319 ff       ???
031a ff       ???
031b ff       ???
031c ff       ???
031d ff       ???
031e ff       ???
031f ff       ???
0320 ff       ???
0321 ff       ???
0322 ff       ???
0323 ff       ???
0324 ff       ???
0325 ff       ???
0326 ff       ???
0327 ff       ???
0328 ff       ???
0329 ff       ???
032a ff       ???
032b ff       ???
032c ff       ???
032d ff       ???
032e ff       ???
032f ff       ???
0330 ff       ???
0331 ff       ???
0332 ff       ???
0333 ff       ???
0334 ff       ???
0335 ff       ???
0336 ff       ???
0337 ff       ???
0338 ff       ???
0339 ff       ???
033a ff       ???
033b ff       ???
033c ff       ???
033d ff       ???
033e ff       ???
033f ff       ???
0340 ff       ???
0341 ff       ???
0342 ff       ???
0343 ff       ???
0344 ff       ???
0345 ff       ???
0346 ff       ???
0347 ff       ???
0348 ff       ???
0349 ff       ???
034a ff       ???
034b ff       ???
034c ff       ???
034d ff       ???
034e ff       ???
034f ff       ???
0350 ff       ???
0351 ff       ???
0352 ff       ???
0353 ff       ???
0354 ff       ???
0355 ff       ???
0356 ff       ???
0357 ff       ???
0358 ff       ???
0359 ff       ???
035a ff       ???
035b ff       ???
035c ff       ???
035d ff       ???
035e ff       ???
035f ff       ???
0360 ff       ???
0361 ff       ???
0362 ff       ???
0363 ff       ???
0364 ff       ???
0365 ff       ???
0366 ff       ???
0367 ff       ???
0368 ff       ???
0369 ff       ???
036a ff       ???
036b ff       ???
036c ff       ???
036d ff       ???
036e ff       ???
036f ff       ???
0370 ff       ???
0371 ff       ???
0372 ff       ???
0373 ff       ???
0374 ff       ???
0375 ff       ???
0376 ff       ???
0377 ff       ???
0378 ff       ???
0379 ff       ???
037a ff       ???
037b ff       ???
037c ff       ???
037d ff       ???
037e ff       ???
037f ff       ???
0380 ff       ???
0381 ff       ???
0382 ff       ???
0383 ff       ???
0384 ff       ???
0385 ff       ???
0386 ff       ???
0387 ff       ???
0388 ff       ???
0389 ff       ???
038a ff       ???
038b ff       ???
038c ff       ???
038d ff       ???
038e ff       ???
038f ff       ???
0390 ff       ???
0391 ff       ???
0392 ff       ???
0393 ff       ???
0394 ff       ???
0395 ff       ???
0396 ff       ???
0397 ff       ???
0398 ff       ???
0399 ff       ???
039a ff       ???
039b ff       ???
039c ff       ???
039d ff       ???
039e ff       ???
039f ff       ???
03a0 ff       ???
03a1 ff       ???
03a2 ff       ???
03a3 ff       ???
03a4 ff       ???
03a5 ff       ???
03a6 ff       ???
03a7 ff       ???
03a8 ff       ???
03a9 ff       ???
03aa ff       ???
03ab ff       ???
03ac ff       ???
03ad ff       ???
03ae ff       ???
03af ff       ???
03b0 ff       ???
03b1 ff       ???
03b2 ff       ???
03b3 ff       ???
03b4 ff       ???
03b5 ff       ???
03b6 ff       ???
03b7 ff       ???
03b8 ff       ???
03b9 ff       ???
03ba ff       ???
03bb ff       ???
03bc ff       ???
03bd ff       ???
03be ff       ???
03bf ff       ???
03c0 ff       ???
03c1 ff       ???
03c2 ff       ???
03c3 ff       ???
03c4 ff       ???
03c5 ff       ???
03c6 ff       ???
03c7 ff       ???
03c8 ff       ???
03c9 ff       ???
03ca ff       ???
03cb ff       ???
03cc ff       ???
03cd ff       ???
03ce ff       ???
03cf ff       ???
03d0 ff       ???
03d1 ff       ???
03d2 ff       ???
03d3 ff       ???
03d4 ff       ???
03d5 ff       ???
03d6 ff       ???
03d7 ff       ???
03d8 ff       ???
03d9 ff       ???
03da ff       ???
03db ff       ???
03dc ff       ???
03dd ff       ???
03de ff       ???
03df ff       ???
03e0 ff       ???
03e1 ff       ???
03e2 ff       ???
03e3 ff       ???
03e4 ff       ???
03e5 ff       ???
03e6 ff       ???
03e7 ff       ???
03e8 ff       ???
03e9 ff       ???
03ea ff       ???
03eb ff       ???
03ec ff       ???
03ed ff       ???
03ee ff       ???
03ef ff       ???
03f0 ff       ???
03f1 ff       ???
03f2 ff       ???
03f3 ff       ???
03f4 ff       ???
03f5 ff       ???
03f6 ff       ???
03f7 ff       ???
03f8 ff       ???
03f9 ff       ???
03fa ff       ???
03fb ff       ???
03fc ff       ???
03fd ff       ???
03fe ff       ???
03ff ff       ???
0400 ff       ???
0401 ff       ???
0402 ff       ???
0403 ff       ???
0404 ff       ???
0405 ff       ???
0406 ff       ???
0407 ff       ???
0408 ff       ???
0409 ff       ???
040a ff       ???
040b ff       ???
040c ff       ???
040d ff       ???
040e ff       ???
040f ff       ???
0410 ff       ???
0411 ff       ???
0412 ff       ???
0413 ff       ???
0414 ff       ???
0415 ff       ???
0416 ff       ???
0417 ff       ???
0418 ff       ???
0419 ff       ???
041a ff       ???
041b ff       ???
041c ff       ???
041d ff       ???
041e ff       ???
041f ff       ???
0420 ff       ???
0421 ff       ???
0422 ff       ???
0423 ff       ???
0424 ff       ???
0425 ff       ???
0426 ff       ???
0427 ff       ???
0428 ff       ???
0429 ff       ???
042a ff       ???
042b ff       ???
042c ff       ???
042d ff       ???
042e ff       ???
042f ff       ???
0430 ff       ???
0431 ff       ???
0432 ff       ???
0433 ff       ???
0434 ff       ???
0435 ff       ???
0436 ff       ???
0437 ff       ???
0438 ff       ???
0439 ff       ???
043a ff       ???
043b ff       ???
043c ff       ???
043d ff       ???
043e ff       ???
043f ff       ???
0440 ff       ???
0441 ff       ???
0442 ff       ???
0443 ff       ???
0444 ff       ???
0445 ff       ???
0446 ff       ???
0447 ff       ???
0448 ff       ???
0449 ff       ???
044a ff       ???
044b ff       ???
044c ff       ???
044d ff       ???
044e ff       ???
044f ff       ???
0450 ff       ???
0451 ff       ???
0452 ff       ???
0453 ff       ???
0454 ff       ???
0455 ff       ???
0456 ff       ???
0457 ff       ???
0458 ff       ???
0459 ff       ???
045a ff       ???
045b ff       ???
045c ff       ???
045d ff       ???
045e ff       ???
045f ff       ???
0460 ff       ???
0461 ff       ???
0462 ff       ???
0463 ff       ???
0464 ff       ???
0465 ff       ???
0466 ff       ???
0467 ff       ???
0468 ff       ???
0469 ff       ???
046a ff       ???
046b ff       ???
046c ff       ???
046d ff       ???
046e ff       ???
046f ff       ???
0470 ff       ???
0471 ff       ???
0472 ff       ???
0473 ff       ???
0474 ff       ???
0475 ff       ???
0476 ff       ???
0477 ff       ???
0478 ff       ???
0479 ff       ???
047a ff       ???
047b ff       ???
047c ff       ???
047d ff       ???
047e ff       ???
047f ff       ???
0480 ff       ???
0481 ff       ???
0482 ff       ???
0483 ff       ???
0484 ff       ???
0485 ff       ???
0486 ff       ???
0487 ff       ???
0488 ff       ???
0489 ff       ???
048a ff       ???
048b ff       ???
048c ff       ???
048d ff       ???
048e ff       ???
048f ff       ???
0490 ff       ???
0491 ff       ???
0492 ff       ???
0493 ff       ???
0494 ff       ???
0495 ff       ???
0496 ff       ???
0497 ff       ???
0498 ff       ???
0499 ff       ???
049a ff       ???
049b ff       ???
049c ff       ???
049d ff       ???
049e ff       ???
049f ff       ???
04a0 ff       ???
04a1 ff       ???
04a2 ff       ???
04a3 ff       ???
04a4 ff       ???
04a5 ff       ???
04a6 ff       ???
04a7 ff       ???
04a8 ff       ???
04a9 ff       ???
04aa ff       ???
04ab ff       ???
04ac ff       ???
04ad ff       ???
04ae ff       ???
04af ff       ???
04b0 ff       ???
04b1 ff       ???
04b2 ff       ???
04b3 ff       ???
04b4 ff       ???
04b5 ff       ???
04b6 ff       ???
04b7 ff       ???
04b8 ff       ???
04b9 ff       ???
04ba ff       ???
04bb ff       ???
04bc ff       ???
04bd ff       ???
04be ff       ???
04bf ff       ???
04c0 ff       ???
04c1 ff       ???
04c2 ff       ???
04c3 ff       ???
04c4 ff       ???
04c5 ff       ???
04c6 ff       ???
04c7 ff       ???
04c8 ff       ???
04c9 ff       ???
04ca ff       ???
04cb ff       ???
04cc ff       ???
04cd ff       ???
04ce ff       ???
04cf ff       ???
04d0 ff       ???
04d1 ff       ???
04d2 ff       ???
04d3 ff       ???
04d4 ff       ???
04d5 ff       ???
04d6 ff       ???
04d7 ff       ???
04d8 ff       ???
04d9 ff       ???
04da ff       ???
04db ff       ???
04dc ff       ???
04dd ff       ???
04de ff       ???
04df ff       ???
04e0 ff       ???
04e1 ff       ???
04e2 ff       ???
04e3 ff       ???
04e4 ff       ???
04e5 ff       ???
04e6 ff       ???
04e7 ff       ???
04e8 ff       ???
04e9 ff       ???
04ea ff       ???
04eb ff       ???
04ec ff       ???
04ed ff       ???
04ee ff       ???
04ef ff       ???
04f0 ff       ???
04f1 ff       ???
04f2 ff       ???
04f3 ff       ???
04f4 ff       ???
04f5 ff       ???
04f6 ff       ???
04f7 ff       ???
04f8 ff       ???
04f9 ff       ???
04fa ff       ???
04fb ff       ???
04fc ff       ???
04fd ff       ???
04fe ff       ???
04ff ff       ???
0500 ff       ???
0501 ff       ???
0502 ff       ???
0503 ff       ???
0504 ff       ???
0505 ff       ???
0506 ff       ???
0507 ff       ???
0508 ff       ???
0509 ff       ???
050a ff       ???
050b ff       ???
050c ff       ???
050d ff       ???
050e ff       ???
050f ff       ???
0510 ff       ???
0511 ff       ???
0512 ff       ???
0513 ff       ???
0514 ff       ???
0515 ff       ???
0516 ff       ???
0517 ff       ???
0518 ff       ???
0519 ff       ???
051a ff       ???
051b ff       ???
051c ff       ???
051d ff       ???
051e ff       ???
051f ff       ???
0520 ff       ???
0521 ff       ???
0522 ff       ???
0523 ff       ???
0524 ff       ???
0525 ff       ???
0526 ff       ???
0527 ff       ???
0528 ff       ???
0529 ff       ???
052a ff       ???
052b ff       ???
052c ff       ???
052d ff       ???
052e ff       ???
052f ff       ???
0530 ff       ???
0531 ff       ???
0532 ff       ???
0533 ff       ???
0534 ff       ???
0535 ff       ???
0536 ff       ???
0537 ff       ???
0538 ff       ???
0539 ff       ???
053a ff       ???
053b ff       ???
053c ff       ???
053d ff       ???
053e ff       ???
053f ff       ???
0540 ff       ???
0541 ff       ???
0542 ff       ???
0543 ff       ???
0544 ff       ???
0545 ff       ???
0546 ff       ???
0547 ff       ???
0548 ff       ???
0549 ff       ???
054a ff       ???
054b ff       ???
054c ff       ???
054d ff       ???
054e ff       ???
054f ff       ???
0550 ff       ???
0551 ff       ???
0552 ff       ???
0553 ff       ???
0554 ff       ???
0555 ff       ???
0556 ff       ???
0557 ff       ???
0558 ff       ???
0559 ff       ???
055a ff       ???
055b ff       ???
055c ff       ???
055d ff       ???
055e ff       ???
055f ff       ???
0560 ff       ???
0561 ff       ???
0562 ff       ???
0563 ff       ???
0564 ff       ???
0565 ff       ???
0566 ff       ???
0567 ff       ???
0568 ff       ???
0569 ff       ???
056a ff       ???
056b ff       ???
056c ff       ???
056d ff       ???
056e ff       ???
056f ff       ???
0570 ff       ???
0571 ff       ???
0572 ff       ???
0573 ff       ???
0574 ff       ???
0575 ff       ???
0576 ff       ???
0577 ff       ???
0578 ff       ???
0579 ff       ???
057a ff       ???
057b ff       ???
057c ff       ???
057d ff       ???
057e ff       ???
057f ff       ???
0580 ff       ???
0581 ff       ???
0582 ff       ???
0583 ff       ???
0584 ff       ???
0585 ff       ???
0586 ff       ???
0587 ff       ???
0588 ff       ???
0589 ff       ???
058a ff       ???
058b ff       ???
058c ff       ???
058d ff       ???
058e ff       ???
058f ff       ???
0590 ff       ???
0591 ff       ???
0592 ff       ???
0593 ff       ???
0594 ff       ???
0595 ff       ???
0596 ff       ???
0597 ff       ???
0598 ff       ???
0599 ff       ???
059a ff       ???
059b ff       ???
059c ff       ???
059d ff       ???
059e ff       ???
059f ff       ???
05a0 ff       ???
05a1 ff       ???
05a2 ff       ???
05a3 ff       ???
05a4 ff       ???
05a5 ff       ???
05a6 ff       ???
05a7 ff       ???
05a8 ff       ???
05a9 ff       ???
05aa ff       ???
05ab ff       ???
05ac ff       ???
05ad ff       ???
05ae ff       ???
05af ff       ???
05b0 ff       ???
05b1 ff       ???
05b2 ff       ???
05b3 ff       ???
05b4 ff       ???
05b5 ff       ???
05b6 ff       ???
05b7 ff       ???
05b8 ff       ???
05b9 ff       ???
05ba ff       ???
05bb ff       ???
05bc ff       ???
05bd ff       ???
05be ff       ???
05bf ff       ???
05c0 ff       ???
05c1 ff       ???
05c2 ff       ???
05c3 ff       ???
05c4 ff       ???
05c5 ff       ???
05c6 ff       ???
05c7 ff       ???
05c8 ff       ???
05c9 ff       ???
05ca ff       ???
05cb ff       ???
05cc ff       ???
05cd ff       ???
05ce ff       ???
05cf ff       ???
05d0 ff       ???
05d1 ff       ???
05d2 ff       ???
05d3 ff       ???
05d4 ff       ???
05d5 ff       ???
05d6 ff       ???
05d7 ff       ???
05d8 ff       ???
05d9 ff       ???
05da ff       ???
05db ff       ???
05dc ff       ???
05dd ff       ???
05de ff       ???
05df ff       ???
05e0 ff       ???
05e1 ff       ???
05e2 ff       ???
05e3 ff       ???
05e4 ff       ???
05e5 ff       ???
05e6 ff       ???
05e7 ff       ???
05e8 ff       ???
05e9 ff       ???
05ea ff       ???
05eb ff       ???
05ec ff       ???
05ed ff       ???
05ee ff       ???
05ef ff       ???
05f0 ff       ???
05f1 ff       ???
05f2 ff       ???
05f3 ff       ???
05f4 ff       ???
05f5 ff       ???
05f6 ff       ???
05f7 ff       ???
05f8 ff       ???
05f9 ff       ???
05fa ff       ???
05fb ff       ???
05fc ff       ???
05fd ff       ???
05fe ff       ???
05ff ff       ???
0600 ff       ???
0601 ff       ???
0602 ff       ???
0603 ff       ???
0604 ff       ???
0605 ff       ???
0606 ff       ???
0607 ff       ???
0608 ff       ???
0609 ff       ???
060a ff       ???
060b ff       ???
060c ff       ???
060d ff       ???
060e ff       ???
060f ff       ???
0610 ff       ???
0611 ff       ???
0612 ff       ???
0613 ff       ???
0614 ff       ???
0615 ff       ???
0616 ff       ???
0617 ff       ???
0618 ff       ???
0619 ff       ???
061a ff       ???
061b ff       ???
061c ff       ???
061d ff       ???
061e ff       ???
061f ff       ???
0620 ff       ???
0621 ff       ???
0622 ff       ???
0623 ff       ???
0624 ff       ???
0625 ff       ???
0626 ff       ???
0627 ff       ???
0628 ff       ???
0629 ff       ???
062a ff       ???
062b ff       ???
062c ff       ???
062d ff       ???
062e ff       ???
062f ff       ???
0630 ff       ???
0631 ff       ???
0632 ff       ???
0633 ff       ???
0634 ff       ???
0635 ff       ???
0636 ff       ???
0637 ff       ???
0638 ff       ???
0639 ff       ???
063a ff       ???
063b ff       ???
063c ff       ???
063d ff       ???
063e ff       ???
063f ff       ???
0640 ff       ???
0641 ff       ???
0642 ff       ???
0643 ff       ???
0644 ff       ???
0645 ff       ???
0646 ff       ???
0647 ff       ???
0648 ff       ???
0649 ff       ???
064a ff       ???
064b ff       ???
064c ff       ???
064d ff       ???
064e ff       ???
064f ff       ???
0650 ff       ???
0651 ff       ???
0652 ff       ???
0653 ff       ???
0654 ff       ???
0655 ff       ???
0656 ff       ???
0657 ff       ???
0658 ff       ???
0659 ff       ???
065a ff       ???
065b ff       ???
065c ff       ???
065d ff       ???
065e ff       ???
065f ff       ???
0660 ff       ???
0661 ff       ???
0662 ff       ???
0663 ff       ???
0664 ff       ???
0665 ff       ???
0666 ff       ???
0667 ff       ???
0668 ff       ???
0669 ff       ???
066a ff       ???
066b ff       ???
066c ff       ???
066d ff       ???
066e ff       ???
066f ff       ???
0670 ff       ???
0671 ff       ???
0672 ff       ???
0673 ff       ???
0674 ff       ???
0675 ff       ???
0676 ff       ???
0677 ff       ???
0678 ff       ???
0679 ff       ???
067a ff       ???
067b ff       ???
067c ff       ???
067d ff       ???
067e ff       ???
067f ff       ???
0680 ff       ???
0681 ff       ???
0682 ff       ???
0683 ff       ???
0684 ff       ???
0685 ff       ???
0686 ff       ???
0687 ff       ???
0688 ff       ???
0689 ff       ???
068a ff       ???
068b ff       ???
068c ff       ???
068d ff       ???
068e ff       ???
068f ff       ???
0690 ff       ???
0691 ff       ???
0692 ff       ???
0693 ff       ???
0694 ff       ???
0695 ff       ???
0696 ff       ???
0697 ff       ???
0698 ff       ???
0699 ff       ???
069a ff       ???
069b ff       ???
069c ff       ???
069d ff       ???
069e ff       ???
069f ff       ???
06a0 ff       ???
06a1 ff       ???
06a2 ff       ???
06a3 ff       ???
06a4 ff       ???
06a5 ff       ???
06a6 ff       ???
06a7 ff       ???
06a8 ff       ???
06a9 ff       ???
06aa ff       ???
06ab ff       ???
06ac ff       ???
06ad ff       ???
06ae ff       ???
06af ff       ???
06b0 ff       ???
06b1 ff       ???
06b2 ff       ???
06b3 ff       ???
06b4 ff       ???
06b5 ff       ???
06b6 ff       ???
06b7 ff       ???
06b8 ff       ???
06b9 ff       ???
06ba ff       ???
06bb ff       ???
06bc ff       ???
06bd ff       ???
06be ff       ???
06bf ff       ???
06c0 ff       ???
06c1 ff       ???
06c2 ff       ???
06c3 ff       ???
06c4 ff       ???
06c5 ff       ???
06c6 ff       ???
06c7 ff       ???
06c8 ff       ???
06c9 ff       ???
06ca ff       ???
06cb ff       ???
06cc ff       ???
06cd ff       ???
06ce ff       ???
06cf ff       ???
06d0 ff       ???
06d1 ff       ???
06d2 ff       ???
06d3 ff       ???
06d4 ff       ???
06d5 ff       ???
06d6 ff       ???
06d7 ff       ???
06d8 ff       ???
06d9 ff       ???
06da ff       ???
06db ff       ???
06dc ff       ???
06dd ff       ???
06de ff       ???
06df ff       ???
06e0 ff       ???
06e1 ff       ???
06e2 ff       ???
06e3 ff       ???
06e4 ff       ???
06e5 ff       ???
06e6 ff       ???
06e7 ff       ???
06e8 ff       ???
06e9 ff       ???
06ea ff       ???
06eb ff       ???
06ec ff       ???
06ed ff       ???
06ee ff       ???
06ef ff       ???
06f0 ff       ???
06f1 ff       ???
06f2 ff       ???
06f3 ff       ???
06f4 ff       ???
06f5 ff       ???
06f6 ff       ???
06f7 ff       ???
06f8 ff       ???
06f9 ff       ???
06fa ff       ???
06fb ff       ???
06fc ff       ???
06fd ff       ???
06fe ff       ???
06ff ff       ???
0700 ff       ???
0701 ff       ???
0702 ff       ???
0703 ff       ???
0704 ff       ???
0705 ff       ???
0706 ff       ???
0707 ff       ???
0708 ff       ???
0709 ff       ???
070a ff       ???
070b ff       ???
070c ff       ???
070d ff       ???
070e ff       ???
070f ff       ???
0710 ff       ???
0711 ff       ???
0712 ff       ???
0713 ff       ???
0714 ff       ???
0715 ff       ???
0716 ff       ???
0717 ff       ???
0718 ff       ???
0719 ff       ???
071a ff       ???
071b ff       ???
071c ff       ???
071d ff       ???
071e ff       ???
071f ff       ???
0720 ff       ???
0721 ff       ???
0722 ff       ???
0723 ff       ???
0724 ff       ???
0725 ff       ???
0726 ff       ???
0727 ff       ???
0728 ff       ???
0729 ff       ???
072a ff       ???
072b ff       ???
072c ff       ???
072d ff       ???
072e ff       ???
072f ff       ???
0730 ff       ???
0731 ff       ???
0732 ff       ???
0733 ff       ???
0734 ff       ???
0735 ff       ???
0736 ff       ???
0737 ff       ???
0738 ff       ???
0739 ff       ???
073a ff       ???
073b ff       ???
073c ff       ???
073d ff       ???
073e ff       ???
073f ff       ???
0740 ff       ???
0741 ff       ???
0742 ff       ???
0743 ff       ???
0744 ff       ???
0745 ff       ???
0746 ff       ???
0747 ff       ???
0748 ff       ???
0749 ff       ???
074a ff       ???
074b ff       ???
074c ff       ???
074d ff       ???
074e ff       ???
074f ff       ???
0750 ff       ???
0751 ff       ???
0752 ff       ???
0753 ff       ???
0754 ff       ???
0755 ff       ???
0756 ff       ???
0757 ff       ???
0758 ff       ???
0759 ff       ???
075a ff       ???
075b ff       ???
075c ff       ???
075d ff       ???
075e ff       ???
075f ff       ???
0760 ff       ???
0761 ff       ???
0762 ff       ???
0763 ff       ???
0764 ff       ???
0765 ff       ???
0766 ff       ???
0767 ff       ???
0768 ff       ???
0769 ff       ???
076a ff       ???
076b ff       ???
076c ff       ???
076d ff       ???
076e ff       ???
076f ff       ???
0770 ff       ???
0771 ff       ???
0772 ff       ???
0773 ff       ???
0774 ff       ???
0775 ff       ???
0776 ff       ???
0777 ff       ???
0778 ff       ???
0779 ff       ???
077a ff       ???
077b ff       ???
077c ff       ???
077d ff       ???
077e ff       ???
077f ff       ???
0780 ff       ???
0781 ff       ???
0782 ff       ???
0783 ff       ???
0784 ff       ???
0785 ff       ???
0786 ff       ???
0787 ff       ???
0788 ff       ???
0789 ff       ???
078a ff       ???
078b ff       ???
078c ff       ???
078d ff       ???
078e ff       ???
078f ff       ???
0790 ff       ???
0791 ff       ???
0792 ff       ???
0793 ff       ???
0794 ff       ???
0795 ff       ???
0796 ff       ???
0797 ff       ???
0798 ff       ???
0799 ff       ???
079a ff       ???
079b ff       ???
079c ff       ???
079d ff       ???
079e ff       ???
079f ff       ???
07a0 ff       ???
07a1 ff       ???
07a2 ff       ???
07a3 ff       ???
07a4 ff       ???
07a5 ff       ???
07a6 ff       ???
07a7 ff       ???
07a8 ff       ???
07a9 ff       ???
07aa ff       ???
07ab ff       ???
07ac ff       ???
07ad ff       ???
07ae ff       ???
07af ff       ???
07b0 ff       ???
07b1 ff       ???
07b2 ff       ???
07b3 ff       ???
07b4 ff       ???
07b5 ff       ???
07b6 ff       ???
07b7 ff       ???
07b8 ff       ???
07b9 ff       ???
07ba ff       ???
07bb ff       ???
07bc ff       ???
07bd ff       ???
07be ff       ???
07bf ff       ???
07c0 ff       ???
07c1 ff       ???
07c2 ff       ???
07c3 ff       ???
07c4 ff       ???
07c5 ff       ???
07c6 ff       ???
07c7 ff       ???
07c8 ff       ???
07c9 ff       ???
07ca ff       ???
07cb ff       ???
07cc ff       ???
07cd ff       ???
07ce ff       ???
07cf ff       ???
07d0 ff       ???
07d1 ff       ???
07d2 ff       ???
07d3 ff       ???
07d4 ff       ???
07d5 ff       ???
07d6 ff       ???
07d7 ff       ???
07d8 ff       ???
07d9 ff       ???
07da ff       ???
07db ff       ???
07dc ff       ???
07dd ff       ???
07de ff       ???
07df ff       ???
07e0 ff       ???
07e1 ff       ???
07e2 ff       ???
07e3 ff       ???
07e4 ff       ???
07e5 ff       ???
07e6 ff       ???
07e7 ff       ???
07e8 ff       ???
07e9 ff       ???
07ea ff       ???
07eb ff       ???
07ec ff       ???
07ed ff       ???
07ee ff       ???
07ef ff       ???
07f0 ff       ???
07f1 ff       ???
07f2 ff       ???
07f3 ff       ???
07f4 ff       ???
07f5 ff       ???
07f6 ff       ???
07f7 ff       ???
07f8 ff       ???
07f9 ff       ???
07fa ff       ???
07fb ff       ???
07fc ff       ???
07fd ff       ???
07fe ff       ???
07ff ff       ???
0800 ff       ???
0801 ff       ???
0802 ff       ???
0803 ff       ???
0804 ff       ???
0805 ff       ???
0806 ff       ???
0807 ff       ???
0808 ff       ???
0809 ff       ???
080a ff       ???
080b ff       ???
080c ff       ???
080d ff       ???
080e ff       ???
080f ff       ???
0810 ff       ???
0811 ff       ???
0812 ff       ???
0813 ff       ???
0814 ff       ???
0815 ff       ???
0816 ff       ???
0817 ff       ???
0818 ff       ???
0819 ff       ???
081a ff       ???
081b ff       ???
081c ff       ???
081d ff       ???
081e ff       ???
081f ff       ???
0820 ff       ???
0821 ff       ???
0822 ff       ???
0823 ff       ???
0824 ff       ???
0825 ff       ???
0826 ff       ???
0827 ff       ???
0828 ff       ???
0829 ff       ???
082a ff       ???
082b ff       ???
082c ff       ???
082d ff       ???
082e ff       ???
082f ff       ???
0830 ff       ???
0831 ff       ???
0832 ff       ???
0833 ff       ???
0834 ff       ???
0835 ff       ???
0836 ff       ???
0837 ff       ???
0838 ff       ???
0839 ff       ???
083a ff       ???
083b ff       ???
083c ff       ???
083d ff       ???
083e ff       ???
083f ff       ???
0840 ff       ???
0841 ff       ???
0842 ff       ???
0843 ff       ???
0844 ff       ???
0845 ff       ???
0846 ff       ???
0847 ff       ???
0848 ff       ???
0849 ff       ???
084a ff       ???
084b ff       ???
084c ff       ???
084d ff       ???
084e ff       ???
084f ff       ???
0850 ff       ???
0851 ff       ???
0852 ff       ???
0853 ff       ???
0854 ff       ???
0855 ff       ???
0856 ff       ???
0857 ff       ???
0858 ff       ???
0859 ff       ???
085a ff       ???
085b ff       ???
085c ff       ???
085d ff       ???
085e ff       ???
085f ff       ???
0860 ff       ???
0861 ff       ???
0862 ff       ???
0863 ff       ???
0864 ff       ???
0865 ff       ???
0866 ff       ???
0867 ff       ???
0868 ff       ???
0869 ff       ???
086a ff       ???
086b ff       ???
086c ff       ???
086d ff       ???
086e ff       ???
086f ff       ???
0870 ff       ???
0871 ff       ???
0872 ff       ???
0873 ff       ???
0874 ff       ???
0875 ff       ???
0876 ff       ???
0877 ff       ???
0878 ff       ???
0879 ff       ???
087a ff       ???
087b ff       ???
087c ff       ???
087d ff       ???
087e ff       ???
087f ff       ???
0880 ff       ???
0881 ff       ???
0882 ff       ???
0883 ff       ???
0884 ff       ???
0885 ff       ???
0886 ff       ???
0887 ff       ???
0888 ff       ???
0889 ff       ???
088a ff       ???
088b ff       ???
088c ff       ???
088d ff       ???
088e ff       ???
088f ff       ???
0890 ff       ???
0891 ff       ???
0892 ff       ???
0893 ff       ???
0894 ff       ???
0895 ff       ???
0896 ff       ???
0897 ff       ???
0898 ff       ???
0899 ff       ???
089a ff       ???
089b ff       ???
089c ff       ???
089d ff       ???
089e ff       ???
089f ff       ???
08a0 ff       ???
08a1 ff       ???
08a2 ff       ???
08a3 ff       ???
08a4 ff       ???
08a5 ff       ???
08a6 ff       ???
08a7 ff       ???
08a8 ff       ???
08a9 ff       ???
08aa ff       ???
08ab ff       ???
08ac ff       ???
08ad ff       ???
08ae ff       ???
08af ff       ???
08b0 ff       ???
08b1 ff       ???
08b2 ff       ???
08b3 ff       ???
08b4 ff       ???
08b5 ff       ???
08b6 ff       ???
08b7 ff       ???
08b8 ff       ???
08b9 ff       ???
08ba ff       ???
08bb ff       ???
08bc ff       ???
08bd ff       ???
08be ff       ???
08bf ff       ???
08c0 ff       ???
08c1 ff       ???
08c2 ff       ???
08c3 ff       ???
08c4 ff       ???
08c5 ff       ???
08c6 ff       ???
08c7 ff       ???
08c8 ff       ???
08c9 ff       ???
08ca ff       ???
08cb ff       ???
08cc ff       ???
08cd ff       ???
08ce ff       ???
08cf ff       ???
08d0 ff       ???
08d1 ff       ???
08d2 ff       ???
08d3 ff       ???
08d4 ff       ???
08d5 ff       ???
08d6 ff       ???
08d7 ff       ???
08d8 ff       ???
08d9 ff       ???
08da ff       ???
08db ff       ???
08dc ff       ???
08dd ff       ???
08de ff       ???
08df ff       ???
08e0 ff       ???
08e1 ff       ???
08e2 ff       ???
08e3 ff       ???
08e4 ff       ???
08e5 ff       ???
08e6 ff       ???
08e7 ff       ???
08e8 ff       ???
08e9 ff       ???
08ea ff       ???
08eb ff       ???
08ec ff       ???
08ed ff       ???
08ee ff       ???
08ef ff       ???
08f0 ff       ???
08f1 ff       ???
08f2 ff       ???
08f3 ff       ???
08f4 ff       ???
08f5 ff       ???
08f6 ff       ???
08f7 ff       ???
08f8 ff       ???
08f9 ff       ???
08fa ff       ???
08fb ff       ???
08fc ff       ???
08fd ff       ???
08fe ff       ???
08ff ff       ???
0900 ff       ???
0901 ff       ???
0902 ff       ???
0903 ff       ???
0904 ff       ???
0905 ff       ???
0906 ff       ???
0907 ff       ???
0908 ff       ???
0909 ff       ???
090a ff       ???
090b ff       ???
090c ff       ???
090d ff       ???
090e ff       ???
090f ff       ???
0910 ff       ???
0911 ff       ???
0912 ff       ???
0913 ff       ???
0914 ff       ???
0915 ff       ???
0916 ff       ???
0917 ff       ???
0918 ff       ???
0919 ff       ???
091a ff       ???
091b ff       ???
091c ff       ???
091d ff       ???
091e ff       ???
091f ff       ???
0920 ff       ???
0921 ff       ???
0922 ff       ???
0923 ff       ???
0924 ff       ???
0925 ff       ???
0926 ff       ???
0927 ff       ???
0928 ff       ???
0929 ff       ???
092a ff       ???
092b ff       ???
092c ff       ???
092d ff       ???
092e ff       ???
092f ff       ???
0930 ff       ???
0931 ff       ???
0932 ff       ???
0933 ff       ???
0934 ff       ???
0935 ff       ???
0936 ff       ???
0937 ff       ???
0938 ff       ???
0939 ff       ???
093a ff       ???
093b ff       ???
093c ff       ???
093d ff       ???
093e ff       ???
093f ff       ???
0940 ff       ???
0941 ff       ???
0942 ff       ???
0943 ff       ???
0944 ff       ???
0945 ff       ???
0946 ff       ???
0947 ff       ???
0948 ff       ???
0949 ff       ???
094a ff       ???
094b ff       ???
094c ff       ???
094d ff       ???
094e ff       ???
094f ff       ???
0950 ff       ???
0951 ff       ???
0952 ff       ???
0953 ff       ???
0954 ff       ???
0955 ff       ???
0956 ff       ???
0957 ff       ???
0958 ff       ???
0959 ff       ???
095a ff       ???
095b ff       ???
095c ff       ???
095d ff       ???
095e ff       ???
095f ff       ???
0960 ff       ???
0961 ff       ???
0962 ff       ???
0963 ff       ???
0964 ff       ???
0965 ff       ???
0966 ff       ???
0967 ff       ???
0968 ff       ???
0969 ff       ???
096a ff       ???
096b ff       ???
096c ff       ???
096d ff       ???
096e ff       ???
096f ff       ???
0970 ff       ???
0971 ff       ???
0972 ff       ???
0973 ff       ???
0974 ff       ???
0975 ff       ???
0976 ff       ???
0977 ff       ???
0978 ff       ???
0979 ff       ???
097a ff       ???
097b ff       ???
097c ff       ???
097d ff       ???
097e ff       ???
097f ff       ???
0980 ff       ???
0981 ff       ???
0982 ff       ???
0983 ff       ???
0984 ff       ???
0985 ff       ???
0986 ff       ???
0987 ff       ???
0988 ff       ???
0989 ff       ???
098a ff       ???
098b ff       ???
098c ff       ???
098d ff       ???
098e ff       ???
098f ff       ???
0990 ff       ???
0991 ff       ???
0992 ff       ???
0993 ff       ???
0994 ff       ???
0995 ff       ???
0996 ff       ???
0997 ff       ???
0998 ff       ???
0999 ff       ???
099a ff       ???
099b ff       ???
099c ff       ???
099d ff       ???
099e ff       ???
099f ff       ???
09a0 ff       ???
09a1 ff       ???
09a2 ff       ???
09a3 ff       ???
09a4 ff       ???
09a5 ff       ???
09a6 ff       ???
09a7 ff       ???
09a8 ff       ???
09a9 ff       ???
09aa ff       ???
09ab ff       ???
09ac ff       ???
09ad ff       ???
09ae ff       ???
09af ff       ???
09b0 ff       ???
09b1 ff       ???
09b2 ff       ???
09b3 ff       ???
09b4 ff       ???
09b5 ff       ???
09b6 ff       ???
09b7 ff       ???
09b8 ff       ???
09b9 ff       ???
09ba ff       ???
09bb ff       ???
09bc ff       ???
09bd ff       ???
09be ff       ???
09bf ff       ???
09c0 ff       ???
09c1 ff       ???
09c2 ff       ???
09c3 ff       ???
09c4 ff       ???
09c5 ff       ???
09c6 ff       ???
09c7 ff       ???
09c8 ff       ???
09c9 ff       ???
09ca ff       ???
09cb ff       ???
09cc ff       ???
09cd ff       ???
09ce ff       ???
09cf ff       ???
09d0 ff       ???
09d1 ff       ???
09d2 ff       ???
09d3 ff       ???
09d4 ff       ???
09d5 ff       ???
09d6 ff       ???
09d7 ff       ???
09d8 ff       ???
09d9 ff       ???
09da ff       ???
09db ff       ???
09dc ff       ???
09dd ff       ???
09de ff       ???
09df ff       ???
09e0 ff       ???
09e1 ff       ???
09e2 ff       ???
09e3 ff       ???
09e4 ff       ???
09e5 ff       ???
09e6 ff       ???
09e7 ff       ???
09e8 ff       ???
09e9 ff       ???
09ea ff       ???
09eb ff       ???
09ec ff       ???
09ed ff       ???
09ee ff       ???
09ef ff       ???
09f0 ff       ???
09f1 ff       ???
09f2 ff       ???
09f3 ff       ???
09f4 ff       ???
09f5 ff       ???
09f6 ff       ???
09f7 ff       ???
09f8 ff       ???
09f9 ff       ???
09fa ff       ???
09fb ff       ???
09fc ff       ???
09fd ff       ???
09fe ff       ???
09ff ff       ???
0a00 ff       ???
0a01 ff       ???
0a02 ff       ???
0a03 ff       ???
0a04 ff       ???
0a05 ff       ???
0a06 ff       ???
0a07 ff       ???
0a08 ff       ???
0a09 ff       ???
0a0a ff       ???
0a0b ff       ???
0a0c ff       ???
0a0d ff       ???
0a0e ff       ???
0a0f ff       ???
0a10 ff       ???
0a11 ff       ???
0a12 ff       ???
0a13 ff       ???
0a14 ff       ???
0a15 ff       ???
0a16 ff       ???
0a17 ff       ???
0a18 ff       ???
0a19 ff       ???
0a1a ff       ???
0a1b ff       ???
0a1c ff       ???
0a1d ff       ???
0a1e ff       ???
0a1f ff       ???
0a20 ff       ???
0a21 ff       ???
0a22 ff       ???
0a23 ff       ???
0a24 ff       ???
0a25 ff       ???
0a26 ff       ???
0a27 ff       ???
0a28 ff       ???
0a29 ff       ???
0a2a ff       ???
0a2b ff       ???
0a2c ff       ???
0a2d ff       ???
0a2e ff       ???
0a2f ff       ???
0a30 ff       ???
0a31 ff       ???
0a32 ff       ???
0a33 ff       ???
0a34 ff       ???
0a35 ff       ???
0a36 ff       ???
0a37 ff       ???
0a38 ff       ???
0a39 ff       ???
0a3a ff       ???
0a3b ff       ???
0a3c ff       ???
0a3d ff       ???
0a3e ff       ???
0a3f ff       ???
0a40 ff       ???
0a41 ff       ???
0a42 ff       ???
0a43 ff       ???
0a44 ff       ???
0a45 ff       ???
0a46 ff       ???
0a47 ff       ???
0a48 ff       ???
0a49 ff       ???
0a4a ff       ???
0a4b ff       ???
0a4c ff       ???
0a4d ff       ???
0a4e ff       ???
0a4f ff       ???
0a50 ff       ???
0a51 ff       ???
0a52 ff       ???
0a53 ff       ???
0a54 ff       ???
0a55 ff       ???
0a56 ff       ???
0a57 ff       ???
0a58 ff       ???
0a59 ff       ???
0a5a ff       ???
0a5b ff       ???
0a5c ff       ???
0a5d ff       ???
0a5e ff       ???
0a5f ff       ???
0a60 ff       ???
0a61 ff       ???
0a62 ff       ???
0a63 ff       ???
0a64 ff       ???
0a65 ff       ???
0a66 ff       ???
0a67 ff       ???
0a68 ff       ???
0a69 ff       ???
0a6a ff       ???
0a6b ff       ???
0a6c ff       ???
0a6d ff       ???
0a6e ff       ???
0a6f ff       ???
0a70 ff       ???
0a71 ff       ???
0a72 ff       ???
0a73 ff       ???
0a74 ff       ???
0a75 ff       ???
0a76 ff       ???
0a77 ff       ???
0a78 ff       ???
0a79 ff       ???
0a7a ff       ???
0a7b ff       ???
0a7c ff       ???
0a7d ff       ???
0a7e ff       ???
0a7f ff       ???
0a80 ff       ???
0a81 ff       ???
0a82 ff       ???
0a83 ff       ???
0a84 ff       ???
0a85 ff       ???
0a86 ff       ???
0a87 ff       ???
0a88 ff       ???
0a89 ff       ???
0a8a ff       ???
0a8b ff       ???
0a8c ff       ???
0a8d ff       ???
0a8e ff       ???
0a8f ff       ???
0a90 ff       ???
0a91 ff       ???
0a92 ff       ???
0a93 ff       ???
0a94 ff       ???
0a95 ff       ???
0a96 ff       ???
0a97 ff       ???
0a98 ff       ???
0a99 ff       ???
0a9a ff       ???
0a9b ff       ???
0a9c ff       ???
0a9d ff       ???
0a9e ff       ???
0a9f ff       ???
0aa0 ff       ???
0aa1 ff       ???
0aa2 ff       ???
0aa3 ff       ???
0aa4 ff       ???
0aa5 ff       ???
0aa6 ff       ???
0aa7 ff       ???
0aa8 ff       ???
0aa9 ff       ???
0aaa ff       ???
0aab ff       ???
0aac ff       ???
0aad ff       ???
0aae ff       ???
0aaf ff       ???
0ab0 ff       ???
0ab1 ff       ???
0ab2 ff       ???
0ab3 ff       ???
0ab4 ff       ???
0ab5 ff       ???
0ab6 ff       ???
0ab7 ff       ???
0ab8 ff       ???
0ab9 ff       ???
0aba ff       ???
0abb ff       ???
0abc ff       ???
0abd ff       ???
0abe ff       ???
0abf ff       ???
0ac0 ff       ???
0ac1 ff       ???
0ac2 ff       ???
0ac3 ff       ???
0ac4 ff       ???
0ac5 ff       ???
0ac6 ff       ???
0ac7 ff       ???
0ac8 ff       ???
0ac9 ff       ???
0aca ff       ???
0acb ff       ???
0acc ff       ???
0acd ff       ???
0ace ff       ???
0acf ff       ???
0ad0 ff       ???
0ad1 ff       ???
0ad2 ff       ???
0ad3 ff       ???
0ad4 ff       ???
0ad5 ff       ???
0ad6 ff       ???
0ad7 ff       ???
0ad8 ff       ???
0ad9 ff       ???
0ada ff       ???
0adb ff       ???
0adc ff       ???
0add ff       ???
0ade ff       ???
0adf ff       ???
0ae0 ff       ???
0ae1 ff       ???
0ae2 ff       ???
0ae3 ff       ???
0ae4 ff       ???
0ae5 ff       ???
0ae6 ff       ???
0ae7 ff       ???
0ae8 ff       ???
0ae9 ff       ???
0aea ff       ???
0aeb ff       ???
0aec ff       ???
0aed ff       ???
0aee ff       ???
0aef ff       ???
0af0 ff       ???
0af1 ff       ???
0af2 ff       ???
0af3 ff       ???
0af4 ff       ???
0af5 ff       ???
0af6 ff       ???
0af7 ff       ???
0af8 ff       ???
0af9 ff       ???
0afa ff       ???
0afb ff       ???
0afc ff       ???
0afd ff       ???
0afe ff       ???
0aff ff       ???
0b00 ff       ???
0b01 ff       ???
0b02 ff       ???
0b03 ff       ???
0b04 ff       ???
0b05 ff       ???
0b06 ff       ???
0b07 ff       ???
0b08 ff       ???
0b09 ff       ???
0b0a ff       ???
0b0b ff       ???
0b0c ff       ???
0b0d ff       ???
0b0e ff       ???
0b0f ff       ???
0b10 ff       ???
0b11 ff       ???
0b12 ff       ???
0b13 ff       ???
0b14 ff       ???
0b15 ff       ???
0b16 ff       ???
0b17 ff       ???
0b18 ff       ???
0b19 ff       ???
0b1a ff       ???
0b1b ff       ???
0b1c ff       ???
0b1d ff       ???
0b1e ff       ???
0b1f ff       ???
0b20 ff       ???
0b21 ff       ???
0b22 ff       ???
0b23 ff       ???
0b24 ff       ???
0b25 ff       ???
0b26 ff       ???
0b27 ff       ???
0b28 ff       ???
0b29 ff       ???
0b2a ff       ???
0b2b ff       ???
0b2c ff       ???
0b2d ff       ???
0b2e ff       ???
0b2f ff       ???
0b30 ff       ???
0b31 ff       ???
0b32 ff       ???
0b33 ff       ???
0b34 ff       ???
0b35 ff       ???
0b36 ff       ???
0b37 ff       ???
0b38 ff       ???
0b39 ff       ???
0b3a ff       ???
0b3b ff       ???
0b3c ff       ???
0b3d ff       ???
0b3e ff       ???
0b3f ff       ???
0b40 ff       ???
0b41 ff       ???
0b42 ff       ???
0b43 ff       ???
0b44 ff       ???
0b45 ff       ???
0b46 ff       ???
0b47 ff       ???
0b48 ff       ???
0b49 ff       ???
0b4a ff       ???
0b4b ff       ???
0b4c ff       ???
0b4d ff       ???
0b4e ff       ???
0b4f ff       ???
0b50 ff       ???
0b51 ff       ???
0b52 ff       ???
0b53 ff       ???
0b54 ff       ???
0b55 ff       ???
0b56 ff       ???
0b57 ff       ???
0b58 ff       ???
0b59 ff       ???
0b5a ff       ???
0b5b ff       ???
0b5c ff       ???
0b5d ff       ???
0b5e ff       ???
0b5f ff       ???
0b60 ff       ???
0b61 ff       ???
0b62 ff       ???
0b63 ff       ???
0b64 ff       ???
0b65 ff       ???
0b66 ff       ???
0b67 ff       ???
0b68 ff       ???
0b69 ff       ???
0b6a ff       ???
0b6b ff       ???
0b6c ff       ???
0b6d ff       ???
0b6e ff       ???
0b6f ff       ???
0b70 ff       ???
0b71 ff       ???
0b72 ff       ???
0b73 ff       ???
0b74 ff       ???
0b75 ff       ???
0b76 ff       ???
0b77 ff       ???
0b78 ff       ???
0b79 ff       ???
0b7a ff       ???
0b7b ff       ???
0b7c ff       ???
0b7d ff       ???
0b7e ff       ???
0b7f ff       ???
0b80 ff       ???
0b81 ff       ???
0b82 ff       ???
0b83 ff       ???
0b84 ff       ???
0b85 ff       ???
0b86 ff       ???
0b87 ff       ???
0b88 ff       ???
0b89 ff       ???
0b8a ff       ???
0b8b ff       ???
0b8c ff       ???
0b8d ff       ???
0b8e ff       ???
0b8f ff       ???
0b90 ff       ???
0b91 ff       ???
0b92 ff       ???
0b93 ff       ???
0b94 ff       ???
0b95 ff       ???
0b96 ff       ???
0b97 ff       ???
0b98 ff       ???
0b99 ff       ???
0b9a ff       ???
0b9b ff       ???
0b9c ff       ???
0b9d ff       ???
0b9e ff       ???
0b9f ff       ???
0ba0 ff       ???
0ba1 ff       ???
0ba2 ff       ???
0ba3 ff       ???
0ba4 ff       ???
0ba5 ff       ???
0ba6 ff       ???
0ba7 ff       ???
0ba8 ff       ???
0ba9 ff       ???
0baa ff       ???
0bab ff       ???
0bac ff       ???
0bad ff       ???
0bae ff       ???
0baf ff       ???
0bb0 ff       ???
0bb1 ff       ???
0bb2 ff       ???
0bb3 ff       ???
0bb4 ff       ???
0bb5 ff       ???
0bb6 ff       ???
0bb7 ff       ???
0bb8 ff       ???
0bb9 ff       ???
0bba ff       ???
0bbb ff       ???
0bbc ff       ???
0bbd ff       ???
0bbe ff       ???
0bbf ff       ???
0bc0 ff       ???
0bc1 ff       ???
0bc2 ff       ???
0bc3 ff       ???
0bc4 ff       ???
0bc5 ff       ???
0bc6 ff       ???
0bc7 ff       ???
0bc8 ff       ???
0bc9 ff       ???
0bca ff       ???
0bcb ff       ???
0bcc ff       ???
0bcd ff       ???
0bce ff       ???
0bcf ff       ???
0bd0 ff       ???
0bd1 ff       ???
0bd2 ff       ???
0bd3 ff       ???
0bd4 ff       ???
0bd5 ff       ???
0bd6 ff       ???
0bd7 ff       ???
0bd8 ff       ???
0bd9 ff       ???
0bda ff       ???
0bdb ff       ???
0bdc ff       ???
0bdd ff       ???
0bde ff       ???
0bdf ff       ???
0be0 ff       ???
0be1 ff       ???
0be2 ff       ???
0be3 ff       ???
0be4 ff       ???
0be5 ff       ???
0be6 ff       ???
0be7 ff       ???
0be8 ff       ???
0be9 ff       ???
0bea ff       ???
0beb ff       ???
0bec ff       ???
0bed ff       ???
0bee ff       ???
0bef ff       ???
0bf0 ff       ???
0bf1 ff       ???
0bf2 ff       ???
0bf3 ff       ???
0bf4 ff       ???
0bf5 ff       ???
0bf6 ff       ???
0bf7 ff       ???
0bf8 ff       ???
0bf9 ff       ???
0bfa ff       ???
0bfb ff       ???
0bfc ff       ???
0bfd ff       ???
0bfe ff       ???
0bff ff       ???
0c00 ff       ???
0c01 ff       ???
0c02 ff       ???
0c03 ff       ???
0c04 ff       ???
0c05 ff       ???
0c06 ff       ???
0c07 ff       ???
0c08 ff       ???
0c09 ff       ???
0c0a ff       ???
0c0b ff       ???
0c0c ff       ???
0c0d ff       ???
0c0e ff       ???
0c0f ff       ???
0c10 ff       ???
0c11 ff       ???
0c12 ff       ???
0c13 ff       ???
0c14 ff       ???
0c15 ff       ???
0c16 ff       ???
0c17 ff       ???
0c18 ff       ???
0c19 ff       ???
0c1a ff       ???
0c1b ff       ???
0c1c ff       ???
0c1d ff       ???
0c1e ff       ???
0c1f ff       ???
0c20 ff       ???
0c21 ff       ???
0c22 ff       ???
0c23 ff       ???
0c24 ff       ???
0c25 ff       ???
0c26 ff       ???
0c27 ff       ???
0c28 ff       ???
0c29 ff       ???
0c2a ff       ???
0c2b ff       ???
0c2c ff       ???
0c2d ff       ???
0c2e ff       ???
0c2f ff       ???
0c30 ff       ???
0c31 ff       ???
0c32 ff       ???
0c33 ff       ???
0c34 ff       ???
0c35 ff       ???
0c36 ff       ???
0c37 ff       ???
0c38 ff       ???
0c39 ff       ???
0c3a ff       ???
0c3b ff       ???
0c3c ff       ???
0c3d ff       ???
0c3e ff       ???
0c3f ff       ???
0c40 ff       ???
0c41 ff       ???
0c42 ff       ???
0c43 ff       ???
0c44 ff       ???
0c45 ff       ???
0c46 ff       ???
0c47 ff       ???
0c48 ff       ???
0c49 ff       ???
0c4a ff       ???
0c4b ff       ???
0c4c ff       ???
0c4d ff       ???
0c4e ff       ???
0c4f ff       ???
0c50 ff       ???
0c51 ff       ???
0c52 ff       ???
0c53 ff       ???
0c54 ff       ???
0c55 ff       ???
0c56 ff       ???
0c57 ff       ???
0c58 ff       ???
0c59 ff       ???
0c5a ff       ???
0c5b ff       ???
0c5c ff       ???
0c5d ff       ???
0c5e ff       ???
0c5f ff       ???
0c60 ff       ???
0c61 ff       ???
0c62 ff       ???
0c63 ff       ???
0c64 ff       ???
0c65 ff       ???
0c66 ff       ???
0c67 ff       ???
0c68 ff       ???
0c69 ff       ???
0c6a ff       ???
0c6b ff       ???
0c6c ff       ???
0c6d ff       ???
0c6e ff       ???
0c6f ff       ???
0c70 ff       ???
0c71 ff       ???
0c72 ff       ???
0c73 ff       ???
0c74 ff       ???
0c75 ff       ???
0c76 ff       ???
0c77 ff       ???
0c78 ff       ???
0c79 ff       ???
0c7a ff       ???
0c7b ff       ???
0c7c ff       ???
0c7d ff       ???
0c7e ff       ???
0c7f ff       ???
0c80 ff       ???
0c81 ff       ???
0c82 ff       ???
0c83 ff       ???
0c84 ff       ???
0c85 ff       ???
0c86 ff       ???
0c87 ff       ???
0c88 ff       ???
0c89 ff       ???
0c8a ff       ???
0c8b ff       ???
0c8c ff       ???
0c8d ff       ???
0c8e ff       ???
0c8f ff       ???
0c90 ff       ???
0c91 ff       ???
0c92 ff       ???
0c93 ff       ???
0c94 ff       ???
0c95 ff       ???
0c96 ff       ???
0c97 ff       ???
0c98 ff       ???
0c99 ff       ???
0c9a ff       ???
0c9b ff       ???
0c9c ff       ???
0c9d ff       ???
0c9e ff       ???
0c9f ff       ???
0ca0 ff       ???
0ca1 ff       ???
0ca2 ff       ???
0ca3 ff       ???
0ca4 ff       ???
0ca5 ff       ???
0ca6 ff       ???
0ca7 ff       ???
0ca8 ff       ???
0ca9 ff       ???
0caa ff       ???
0cab ff       ???
0cac ff       ???
0cad ff       ???
0cae ff       ???
0caf ff       ???
0cb0 ff       ???
0cb1 ff       ???
0cb2 ff       ???
0cb3 ff       ???
0cb4 ff       ???
0cb5 ff       ???
0cb6 ff       ???
0cb7 ff       ???
0cb8 ff       ???
0cb9 ff       ???
0cba ff       ???
0cbb ff       ???
0cbc ff       ???
0cbd ff       ???
0cbe ff       ???
0cbf ff       ???
0cc0 ff       ???
0cc1 ff       ???
0cc2 ff       ???
0cc3 ff       ???
0cc4 ff       ???
0cc5 ff       ???
0cc6 ff       ???
0cc7 ff       ???
0cc8 ff       ???
0cc9 ff       ???
0cca ff       ???
0ccb ff       ???
0ccc ff       ???
0ccd ff       ???
0cce ff       ???
0ccf ff       ???
0cd0 ff       ???
0cd1 ff       ???
0cd2 ff       ???
0cd3 ff       ???
0cd4 ff       ???
0cd5 ff       ???
0cd6 ff       ???
0cd7 ff       ???
0cd8 ff       ???
0cd9 ff       ???
0cda ff       ???
0cdb ff       ???
0cdc ff       ???
0cdd ff       ???
0cde ff       ???
0cdf ff       ???
0ce0 ff       ???
0ce1 ff       ???
0ce2 ff       ???
0ce3 ff       ???
0ce4 ff       ???
0ce5 ff       ???
0ce6 ff       ???
0ce7 ff       ???
0ce8 ff       ???
0ce9 ff       ???
0cea ff       ???
0ceb ff       ???
0cec ff       ???
0ced ff       ???
0cee ff       ???
0cef ff       ???
0cf0 ff       ???
0cf1 ff       ???
0cf2 ff       ???
0cf3 ff       ???
0cf4 ff       ???
0cf5 ff       ???
0cf6 ff       ???
0cf7 ff       ???
0cf8 ff       ???
0cf9 ff       ???
0cfa ff       ???
0cfb ff       ???
0cfc ff       ???
0cfd ff       ???
0cfe ff       ???
0cff ff       ???
0d00 ff       ???
0d01 ff       ???
0d02 ff       ???
0d03 ff       ???
0d04 ff       ???
0d05 ff       ???
0d06 ff       ???
0d07 ff       ???
0d08 ff       ???
0d09 ff       ???
0d0a ff       ???
0d0b ff       ???
0d0c ff       ???
0d0d ff       ???
0d0e ff       ???
0d0f ff       ???
0d10 ff       ???
0d11 ff       ???
0d12 ff       ???
0d13 ff       ???
0d14 ff       ???
0d15 ff       ???
0d16 ff       ???
0d17 ff       ???
0d18 ff       ???
0d19 ff       ???
0d1a ff       ???
0d1b ff       ???
0d1c ff       ???
0d1d ff       ???
0d1e ff       ???
0d1f ff       ???
0d20 ff       ???
0d21 ff       ???
0d22 ff       ???
0d23 ff       ???
0d24 ff       ???
0d25 ff       ???
0d26 ff       ???
0d27 ff       ???
0d28 ff       ???
0d29 ff       ???
0d2a ff       ???
0d2b ff       ???
0d2c ff       ???
0d2d ff       ???
0d2e ff       ???
0d2f ff       ???
0d30 ff       ???
0d31 ff       ???
0d32 ff       ???
0d33 ff       ???
0d34 ff       ???
0d35 ff       ???
0d36 ff       ???
0d37 ff       ???
0d38 ff       ???
0d39 ff       ???
0d3a ff       ???
0d3b ff       ???
0d3c ff       ???
0d3d ff       ???
0d3e ff       ???
0d3f ff       ???
0d40 ff       ???
0d41 ff       ???
0d42 ff       ???
0d43 ff       ???
0d44 ff       ???
0d45 ff       ???
0d46 ff       ???
0d47 ff       ???
0d48 ff       ???
0d49 ff       ???
0d4a ff       ???
0d4b ff       ???
0d4c ff       ???
0d4d ff       ???
0d4e ff       ???
0d4f ff       ???
0d50 ff       ???
0d51 ff       ???
0d52 ff       ???
0d53 ff       ???
0d54 ff       ???
0d55 ff       ???
0d56 ff       ???
0d57 ff       ???
0d58 ff       ???
0d59 ff       ???
0d5a ff       ???
0d5b ff       ???
0d5c ff       ???
0d5d ff       ???
0d5e ff       ???
0d5f ff       ???
0d60 ff       ???
0d61 ff       ???
0d62 ff       ???
0d63 ff       ???
0d64 ff       ???
0d65 ff       ???
0d66 ff       ???
0d67 ff       ???
0d68 ff       ???
0d69 ff       ???
0d6a ff       ???
0d6b ff       ???
0d6c ff       ???
0d6d ff       ???
0d6e ff       ???
0d6f ff       ???
0d70 ff       ???
0d71 ff       ???
0d72 ff       ???
0d73 ff       ???
0d74 ff       ???
0d75 ff       ???
0d76 ff       ???
0d77 ff       ???
0d78 ff       ???
0d79 ff       ???
0d7a ff       ???
0d7b ff       ???
0d7c ff       ???
0d7d ff       ???
0d7e ff       ???
0d7f ff       ???
0d80 ff       ???
0d81 ff       ???
0d82 ff       ???
0d83 ff       ???
0d84 ff       ???
0d85 ff       ???
0d86 ff       ???
0d87 ff       ???
0d88 ff       ???
0d89 ff       ???
0d8a ff       ???
0d8b ff       ???
0d8c ff       ???
0d8d ff       ???
0d8e ff       ???
0d8f ff       ???
0d90 ff       ???
0d91 ff       ???
0d92 ff       ???
0d93 ff       ???
0d94 ff       ???
0d95 ff       ???
0d96 ff       ???
0d97 ff       ???
0d98 ff       ???
0d99 ff       ???
0d9a ff       ???
0d9b ff       ???
0d9c ff       ???
0d9d ff       ???
0d9e ff       ???
0d9f ff       ???
0da0 ff       ???
0da1 ff       ???
0da2 ff       ???
0da3 ff       ???
0da4 ff       ???
0da5 ff       ???
0da6 ff       ???
0da7 ff       ???
0da8 ff       ???
0da9 ff       ???
0daa ff       ???
0dab ff       ???
0dac ff       ???
0dad ff       ???
0dae ff       ???
0daf ff       ???
0db0 ff       ???
0db1 ff       ???
0db2 ff       ???
0db3 ff       ???
0db4 ff       ???
0db5 ff       ???
0db6 ff       ???
0db7 ff       ???
0db8 ff       ???
0db9 ff       ???
0dba ff       ???
0dbb ff       ???
0dbc ff       ???
0dbd ff       ???
0dbe ff       ???
0dbf ff       ???
0dc0 ff       ???
0dc1 ff       ???
0dc2 ff       ???
0dc3 ff       ???
0dc4 ff       ???
0dc5 ff       ???
0dc6 ff       ???
0dc7 ff       ???
0dc8 ff       ???
0dc9 ff       ???
0dca ff       ???
0dcb ff       ???
0dcc ff       ???
0dcd ff       ???
0dce ff       ???
0dcf ff       ???
0dd0 ff       ???
0dd1 ff       ???
0dd2 ff       ???
0dd3 ff       ???
0dd4 ff       ???
0dd5 ff       ???
0dd6 ff       ???
0dd7 ff       ???
0dd8 ff       ???
0dd9 ff       ???
0dda ff       ???
0ddb ff       ???
0ddc ff       ???
0ddd ff       ???
0dde ff       ???
0ddf ff       ???
0de0 ff       ???
0de1 ff       ???
0de2 ff       ???
0de3 ff       ???
0de4 ff       ???
0de5 ff       ???
0de6 ff       ???
0de7 ff       ???
0de8 ff       ???
0de9 ff       ???
0dea ff       ???
0deb ff       ???
0dec ff       ???
0ded ff       ???
0dee ff       ???
0def ff       ???
0df0 ff       ???
0df1 ff       ???
0df2 ff       ???
0df3 ff       ???
0df4 ff       ???
0df5 ff       ???
0df6 ff       ???
0df7 ff       ???
0df8 ff       ???
0df9 ff       ???
0dfa ff       ???
0dfb ff       ???
0dfc ff       ???
0dfd ff       ???
0dfe ff       ???
0dff ff       ???
0e00 ff       ???
0e01 ff       ???
0e02 ff       ???
0e03 ff       ???
0e04 ff       ???
0e05 ff       ???
0e06 ff       ???
0e07 ff       ???
0e08 ff       ???
0e09 ff       ???
0e0a ff       ???
0e0b ff       ???
0e0c ff       ???
0e0d ff       ???
0e0e ff       ???
0e0f ff       ???
0e10 ff       ???
0e11 ff       ???
0e12 ff       ???
0e13 ff       ???
0e14 ff       ???
0e15 ff       ???
0e16 ff       ???
0e17 ff       ???
0e18 ff       ???
0e19 ff       ???
0e1a ff       ???
0e1b ff       ???
0e1c ff       ???
0e1d ff       ???
0e1e ff       ???
0e1f ff       ???
0e20 ff       ???
0e21 ff       ???
0e22 ff       ???
0e23 ff       ???
0e24 ff       ???
0e25 ff       ???
0e26 ff       ???
0e27 ff       ???
0e28 ff       ???
0e29 ff       ???
0e2a ff       ???
0e2b ff       ???
0e2c ff       ???
0e2d ff       ???
0e2e ff       ???
0e2f ff       ???
0e30 ff       ???
0e31 ff       ???
0e32 ff       ???
0e33 ff       ???
0e34 ff       ???
0e35 ff       ???
0e36 ff       ???
0e37 ff       ???
0e38 ff       ???
0e39 ff       ???
0e3a ff       ???
0e3b ff       ???
0e3c ff       ???
0e3d ff       ???
0e3e ff       ???
0e3f ff       ???
0e40 ff       ???
0e41 ff       ???
0e42 ff       ???
0e43 ff       ???
0e44 ff       ???
0e45 ff       ???
0e46 ff       ???
0e47 ff       ???
0e48 ff       ???
0e49 ff       ???
0e4a ff       ???
0e4b ff       ???
0e4c ff       ???
0e4d ff       ???
0e4e ff       ???
0e4f ff       ???
0e50 ff       ???
0e51 ff       ???
0e52 ff       ???
0e53 ff       ???
0e54 ff       ???
0e55 ff       ???
0e56 ff       ???
0e57 ff       ???
0e58 ff       ???
0e59 ff       ???
0e5a ff       ???
0e5b ff       ???
0e5c ff       ???
0e5d ff       ???
0e5e ff       ???
0e5f ff       ???
0e60 ff       ???
0e61 ff       ???
0e62 ff       ???
0e63 ff       ???
0e64 ff       ???
0e65 ff       ???
0e66 ff       ???
0e67 ff       ???
0e68 ff       ???
0e69 ff       ???
0e6a ff       ???
0e6b ff       ???
0e6c ff       ???
0e6d ff       ???
0e6e ff       ???
0e6f ff       ???
0e70 ff       ???
0e71 ff       ???
0e72 ff       ???
0e73 ff       ???
0e74 ff       ???
0e75 ff       ???
0e76 ff       ???
0e77 ff       ???
0e78 ff       ???
0e79 ff       ???
0e7a ff       ???
0e7b ff       ???
0e7c ff       ???
0e7d ff       ???
0e7e ff       ???
0e7f ff       ???
0e80 ff       ???
0e81 ff       ???
0e82 ff       ???
0e83 ff       ???
0e84 ff       ???
0e85 ff       ???
0e86 ff       ???
0e87 ff       ???
0e88 ff       ???
0e89 ff       ???
0e8a ff       ???
0e8b ff       ???
0e8c ff       ???
0e8d ff       ???
0e8e ff       ???
0e8f ff       ???
0e90 ff       ???
0e91 ff       ???
0e92 ff       ???
0e93 ff       ???
0e94 ff       ???
0e95 ff       ???
0e96 ff       ???
0e97 ff       ???
0e98 ff       ???
0e99 ff       ???
0e9a ff       ???
0e9b ff       ???
0e9c ff       ???
0e9d ff       ???
0e9e ff       ???
0e9f ff       ???
0ea0 ff       ???
0ea1 ff       ???
0ea2 ff       ???
0ea3 ff       ???
0ea4 ff       ???
0ea5 ff       ???
0ea6 ff       ???
0ea7 ff       ???
0ea8 ff       ???
0ea9 ff       ???
0eaa ff       ???
0eab ff       ???
0eac ff       ???
0ead ff       ???
0eae ff       ???
0eaf ff       ???
0eb0 ff       ???
0eb1 ff       ???
0eb2 ff       ???
0eb3 ff       ???
0eb4 ff       ???
0eb5 ff       ???
0eb6 ff       ???
0eb7 ff       ???
0eb8 ff       ???
0eb9 ff       ???
0eba ff       ???
0ebb ff       ???
0ebc ff       ???
0ebd ff       ???
0ebe ff       ???
0ebf ff       ???
0ec0 ff       ???
0ec1 ff       ???
0ec2 ff       ???
0ec3 ff       ???
0ec4 ff       ???
0ec5 ff       ???
0ec6 ff       ???
0ec7 ff       ???
0ec8 ff       ???
0ec9 ff       ???
0eca ff       ???
0ecb ff       ???
0ecc ff       ???
0ecd ff       ???
0ece ff       ???
0ecf ff       ???
0ed0 ff       ???
0ed1 ff       ???
0ed2 ff       ???
0ed3 ff       ???
0ed4 ff       ???
0ed5 ff       ???
0ed6 ff       ???
0ed7 ff       ???
0ed8 ff       ???
0ed9 ff       ???
0eda ff       ???
0edb ff       ???
0edc ff       ???
0edd ff       ???
0ede ff       ???
0edf ff       ???
0ee0 ff       ???
0ee1 ff       ???
0ee2 ff       ???
0ee3 ff       ???
0ee4 ff       ???
0ee5 ff       ???
0ee6 ff       ???
0ee7 ff       ???
0ee8 ff       ???
0ee9 ff       ???
0eea ff       ???
0eeb ff       ???
0eec ff       ???
0eed ff       ???
0eee ff       ???
0eef ff       ???
0ef0 ff       ???
0ef1 ff       ???
0ef2 ff       ???
0ef3 ff       ???
0ef4 ff       ???
0ef5 ff       ???
0ef6 ff       ???
0ef7 ff       ???
0ef8 ff       ???
0ef9 ff       ???
0efa ff       ???
0efb ff       ???
0efc ff       ???
0efd ff       ???
0efe ff       ???
0eff ff       ???
0f00 ff       ???
0f01 ff       ???
0f02 ff       ???
0f03 ff       ???
0f04 ff       ???
0f05 ff       ???
0f06 ff       ???
0f07 ff       ???
0f08 ff       ???
0f09 ff       ???
0f0a ff       ???
0f0b ff       ???
0f0c ff       ???
0f0d ff       ???
0f0e ff       ???
0f0f ff       ???
0f10 ff       ???
0f11 ff       ???
0f12 ff       ???
0f13 ff       ???
0f14 ff       ???
0f15 ff       ???
0f16 ff       ???
0f17 ff       ???
0f18 ff       ???
0f19 ff       ???
0f1a ff       ???
0f1b ff       ???
0f1c ff       ???
0f1d ff       ???
0f1e ff       ???
0f1f ff       ???
0f20 ff       ???
0f21 ff       ???
0f22 ff       ???
0f23 ff       ???
0f24 ff       ???
0f25 ff       ???
0f26 ff       ???
0f27 ff       ???
0f28 ff       ???
0f29 ff       ???
0f2a ff       ???
0f2b ff       ???
0f2c ff       ???
0f2d ff       ???
0f2e ff       ???
0f2f ff       ???
0f30 ff       ???
0f31 ff       ???
0f32 ff       ???
0f33 ff       ???
0f34 ff       ???
0f35 ff       ???
0f36 ff       ???
0f37 ff       ???
0f38 ff       ???
0f39 ff       ???
0f3a ff       ???
0f3b ff       ???
0f3c ff       ???
0f3d ff       ???
0f3e ff       ???
0f3f ff       ???
0f40 ff       ???
0f41 ff       ???
0f42 ff       ???
0f43 ff       ???
0f44 ff       ???
0f45 ff       ???
0f46 ff       ???
0f47 ff       ???
0f48 ff       ???
0f49 ff       ???
0f4a ff       ???
0f4b ff       ???
0f4c ff       ???
0f4d ff       ???
0f4e ff       ???
0f4f ff       ???
0f50 ff       ???
0f51 ff       ???
0f52 ff       ???
0f53 ff       ???
0f54 ff       ???
0f55 ff       ???
0f56 ff       ???
0f57 ff       ???
0f58 ff       ???
0f59 ff       ???
0f5a ff       ???
0f5b ff       ???
0f5c ff       ???
0f5d ff       ???
0f5e ff       ???
0f5f ff       ???
0f60 ff       ???
0f61 ff       ???
0f62 ff       ???
0f63 ff       ???
0f64 ff       ???
0f65 ff       ???
0f66 ff       ???
0f67 ff       ???
0f68 ff       ???
0f69 ff       ???
0f6a ff       ???
0f6b ff       ???
0f6c ff       ???
0f6d ff       ???
0f6e ff       ???
0f6f ff       ???
0f70 ff       ???
0f71 ff       ???
0f72 ff       ???
0f73 ff       ???
0f74 ff       ???
0f75 ff       ???
0f76 ff       ???
0f77 ff       ???
0f78 ff       ???
0f79 ff       ???
0f7a ff       ???
0f7b ff       ???
0f7c ff       ???
0f7d ff       ???
0f7e ff       ???
0f7f ff       ???
0f80 ff       ???
0f81 ff       ???
0f82 ff       ???
0f83 ff       ???
0f84 ff       ???
0f85 ff       ???
0f86 ff       ???
0f87 ff       ???
0f88 ff       ???
0f89 ff       ???
0f8a ff       ???
0f8b ff       ???
0f8c ff       ???
0f8d ff       ???
0f8e ff       ???
0f8f ff       ???
0f90 ff       ???
0f91 ff       ???
0f92 ff       ???
0f93 ff       ???
0f94 ff       ???
0f95 ff       ???
0f96 ff       ???
0f97 ff       ???
0f98 ff       ???
0f99 ff       ???
0f9a ff       ???
0f9b ff       ???
0f9c ff       ???
0f9d ff       ???
0f9e ff       ???
0f9f ff       ???
0fa0 ff       ???
0fa1 ff       ???
0fa2 ff       ???
0fa3 ff       ???
0fa4 ff       ???
0fa5 ff       ???
0fa6 ff       ???
0fa7 ff       ???
0fa8 ff       ???
0fa9 ff       ???
0faa ff       ???
0fab ff       ???
0fac ff       ???
0fad ff       ???
0fae ff       ???
0faf ff       ???
0fb0 ff       ???
0fb1 ff       ???
0fb2 ff       ???
0fb3 ff       ???
0fb4 ff       ???
0fb5 ff       ???
0fb6 ff       ???
0fb7 ff       ???
0fb8 ff       ???
0fb9 ff       ???
0fba ff       ???
0fbb ff       ???
0fbc ff       ???
0fbd ff       ???
0fbe ff       ???
0fbf ff       ???
0fc0 ff       ???
0fc1 ff       ???
0fc2 ff       ???
0fc3 ff       ???
0fc4 ff       ???
0fc5 ff       ???
0fc6 ff       ???
0fc7 ff       ???
0fc8 ff       ???
0fc9 ff       ???
0fca ff       ???
0fcb ff       ???
0fcc ff       ???
0fcd ff       ???
0fce ff       ???
0fcf ff       ???
0fd0 ff       ???
0fd1 ff       ???
0fd2 ff       ???
0fd3 ff       ???
0fd4 ff       ???
0fd5 ff       ???
0fd6 ff       ???
0fd7 ff       ???
0fd8 ff       ???
0fd9 ff       ???
0fda ff       ???
0fdb ff       ???
0fdc ff       ???
0fdd ff       ???
0fde ff       ???
0fdf ff       ???
0fe0 ff       ???
0fe1 ff       ???
0fe2 ff       ???
0fe3 ff       ???
0fe4 ff       ???
0fe5 ff       ???
0fe6 ff       ???
0fe7 ff       ???
0fe8 ff       ???
0fe9 ff       ???
0fea ff       ???
0feb ff       ???
0fec ff       ???
0fed ff       ???
0fee ff       ???
0fef ff       ???
0ff0 ff       ???
0ff1 ff       ???
0ff2 ff       ???
0ff3 ff       ???
0ff4 ff       ???
0ff5 ff       ???
0ff6 ff       ???
0ff7 ff       ???
0ff8 ff       ???
0ff9 ff       ???
0ffa ff       ???
0ffb ff       ???
0ffc ff       ???
0ffd ff       ???
0ffe ff       ???
0fff ff       ???
1000 ff       ???
1001 ff       ???
1002 ff       ???
1003 ff       ???
1004 ff       ???
1005 ff       ???
1006 ff       ???
1007 ff       ???
1008 ff       ???
1009 ff       ???
100a ff       ???
100b ff       ???
100c ff       ???
100d ff       ???
100e ff       ???
100f ff       ???
1010 ff       ???
1011 ff       ???
1012 ff       ???
1013 ff       ???
1014 ff       ???
1015 ff       ???
1016 ff       ???
1017 ff       ???
1018 ff       ???
1019 ff       ???
101a ff       ???
101b ff       ???
101c ff       ???
101d ff       ???
101e ff       ???
101f ff       ???
1020 ff       ???
1021 ff       ???
1022 ff       ???
1023 ff       ???
1024 ff       ???
1025 ff       ???
1026 ff       ???
1027 ff       ???
1028 ff       ???
1029 ff       ???
102a ff       ???
102b ff       ???
102c ff       ???
102d ff       ???
102e ff       ???
102f ff       ???
1030 ff       ???
1031 ff       ???
1032 ff       ???
1033 ff       ???
1034 ff       ???
1035 ff       ???
1036 ff       ???
1037 ff       ???
1038 ff       ???
1039 ff       ???
103a ff       ???
103b ff       ???
103c ff       ???
103d ff       ???
103e ff       ???
103f ff       ???
1040 ff       ???
1041 ff       ???
1042 ff       ???
1043 ff       ???
1044 ff       ???
1045 ff       ???
1046 ff       ???
1047 ff       ???
1048 ff       ???
1049 ff       ???
104a ff       ???
104b ff       ???
104c ff       ???
104d ff       ???
104e ff       ???
104f ff       ???
1050 ff       ???
1051 ff       ???
1052 ff       ???
1053 ff       ???
1054 ff       ???
1055 ff       ???
1056 ff       ???
1057 ff       ???
1058 ff       ???
1059 ff       ???
105a ff       ???
105b ff       ???
105c ff       ???
105d ff       ???
105e ff       ???
105f ff       ???
1060 ff       ???
1061 ff       ???
1062 ff       ???
1063 ff       ???
1064 ff       ???
1065 ff       ???
1066 ff       ???
1067 ff       ???
1068 ff       ???
1069 ff       ???
106a ff       ???
106b ff       ???
106c ff       ???
106d ff       ???
106e ff       ???
106f ff       ???
1070 ff       ???
1071 ff       ???
1072 ff       ???
1073 ff       ???
1074 ff       ???
1075 ff       ???
1076 ff       ???
1077 ff       ???
1078 ff       ???
1079 ff       ???
107a ff       ???
107b ff       ???
107c ff       ???
107d ff       ???
107e ff       ???
107f ff       ???
1080 ff       ???
1081 ff       ???
1082 ff       ???
1083 ff       ???
1084 ff       ???
1085 ff       ???
1086 ff       ???
1087 ff       ???
1088 ff       ???
1089 ff       ???
108a ff       ???
108b ff       ???
108c ff       ???
108d ff       ???
108e ff       ???
108f ff       ???
1090 ff       ???
1091 ff       ???
1092 ff       ???
1093 ff       ???
1094 ff       ???
1095 ff       ???
1096 ff       ???
1097 ff       ???
1098 ff       ???
1099 ff       ???
109a ff       ???
109b ff       ???
109c ff       ???
109d ff       ???
109e ff       ???
109f ff       ???
10a0 ff       ???
10a1 ff       ???
10a2 ff       ???
10a3 ff       ???
10a4 ff       ???
10a5 ff       ???
10a6 ff       ???
10a7 ff       ???
10a8 ff       ???
10a9 ff       ???
10aa ff       ???
10ab ff       ???
10ac ff       ???
10ad ff       ???
10ae ff       ???
10af ff       ???
10b0 ff       ???
10b1 ff       ???
10b2 ff       ???
10b3 ff       ???
10b4 ff       ???
10b5 ff       ???
10b6 ff       ???
10b7 ff       ???
10b8 ff       ???
10b9 ff       ???
10ba ff       ???
10bb ff       ???
10bc ff       ???
10bd ff       ???
10be ff       ???
10bf ff       ???
10c0 ff       ???
10c1 ff       ???
10c2 ff       ???
10c3 ff       ???
10c4 ff       ???
10c5 ff       ???
10c6 ff       ???
10c7 ff       ???
10c8 ff       ???
10c9 ff       ???
10ca ff       ???
10cb ff       ???
10cc ff       ???
10cd ff       ???
10ce ff       ???
10cf ff       ???
10d0 ff       ???
10d1 ff       ???
10d2 ff       ???
10d3 ff       ???
10d4 ff       ???
10d5 ff       ???
10d6 ff       ???
10d7 ff       ???
10d8 ff       ???
10d9 ff       ???
10da ff       ???
10db ff       ???
10dc ff       ???
10dd ff       ???
10de ff       ???
10df ff       ???
10e0 ff       ???
10e1 ff       ???
10e2 ff       ???
10e3 ff       ???
10e4 ff       ???
10e5 ff       ???
10e6 ff       ???
10e7 ff       ???
10e8 ff       ???
10e9 ff       ???
10ea ff       ???
10eb ff       ???
10ec ff       ???
10ed ff       ???
10ee ff       ???
10ef ff       ???
10f0 ff       ???
10f1 ff       ???
10f2 ff       ???
10f3 ff       ???
10f4 ff       ???
10f5 ff       ???
10f6 ff       ???
10f7 ff       ???
10f8 ff       ???
10f9 ff       ???
10fa ff       ???
10fb ff       ???
10fc ff       ???
10fd ff       ???
10fe ff       ???
10ff ff       ???
1100 ff       ???
1101 ff       ???
1102 ff       ???
1103 ff       ???
1104 ff       ???
1105 ff       ???
1106 ff       ???
1107 ff       ???
1108 ff       ???
1109 ff       ???
110a ff       ???
110b ff       ???
110c ff       ???
110d ff       ???
110e ff       ???
110f ff       ???
1110 ff       ???
1111 ff       ???
1112 ff       ???
1113 ff       ???
1114 ff       ???
1115 ff       ???
1116 ff       ???
1117 ff       ???
1118 ff       ???
1119 ff       ???
111a ff       ???
111b ff       ???
111c ff       ???
111d ff       ???
111e ff       ???
111f ff       ???
1120 ff       ???
1121 ff       ???
1122 ff       ???
1123 ff       ???
1124 ff       ???
1125 ff       ???
1126 ff       ???
1127 ff       ???
1128 ff       ???
1129 ff       ???
112a ff       ???
112b ff       ???
112c ff       ???
112d ff       ???
112e ff       ???
112f ff       ???
1130 ff       ???
1131 ff       ???
1132 ff       ???
1133 ff       ???
1134 ff       ???
1135 ff       ???
1136 ff       ???
1137 ff       ???
1138 ff       ???
1139 ff       ???
113a ff       ???
113b ff       ???
113c ff       ???
113d ff       ???
113e ff       ???
113f ff       ???
1140 ff       ???
1141 ff       ???
1142 ff       ???
1143 ff       ???
1144 ff       ???
1145 ff       ???
1146 ff       ???
1147 ff       ???
1148 ff       ???
1149 ff       ???
114a ff       ???
114b ff       ???
114c ff       ???
114d ff       ???
114e ff       ???
114f ff       ???
1150 ff       ???
1151 ff       ???
1152 ff       ???
1153 ff       ???
1154 ff       ???
1155 ff       ???
1156 ff       ???
1157 ff       ???
1158 ff       ???
1159 ff       ???
115a ff       ???
115b ff       ???
115c ff       ???
115d ff       ???
115e ff       ???
115f ff       ???
1160 ff       ???
1161 ff       ???
1162 ff       ???
1163 ff       ???
1164 ff       ???
1165 ff       ???
1166 ff       ???
1167 ff       ???
1168 ff       ???
1169 ff       ???
116a ff       ???
116b ff       ???
116c ff       ???
116d ff       ???
116e ff       ???
116f ff       ???
1170 ff       ???
1171 ff       ???
1172 ff       ???
1173 ff       ???
1174 ff       ???
1175 ff       ???
1176 ff       ???
1177 ff       ???
1178 ff       ???
1179 ff       ???
117a ff       ???
117b ff       ???
117c ff       ???
117d ff       ???
117e ff       ???
117f ff       ???
1180 ff       ???
1181 ff       ???
1182 ff       ???
1183 ff       ???
1184 ff       ???
1185 ff       ???
1186 ff       ???
1187 ff       ???
1188 ff       ???
1189 ff       ???
118a ff       ???
118b ff       ???
118c ff       ???
118d ff       ???
118e ff       ???
118f ff       ???
1190 ff       ???
1191 ff       ???
1192 ff       ???
1193 ff       ???
1194 ff       ???
1195 ff       ???
1196 ff       ???
1197 ff       ???
1198 ff       ???
1199 ff       ???
119a ff       ???
119b ff       ???
119c ff       ???
119d ff       ???
119e ff       ???
119f ff       ???
11a0 ff       ???
11a1 ff       ???
11a2 ff       ???
11a3 ff       ???
11a4 ff       ???
11a5 ff       ???
11a6 ff       ???
11a7 ff       ???
11a8 ff       ???
11a9 ff       ???
11aa ff       ???
11ab ff       ???
11ac ff       ???
11ad ff       ???
11ae ff       ???
11af ff       ???
11b0 ff       ???
11b1 ff       ???
11b2 ff       ???
11b3 ff       ???
11b4 ff       ???
11b5 ff       ???
11b6 ff       ???
11b7 ff       ???
11b8 ff       ???
11b9 ff       ???
11ba ff       ???
11bb ff       ???
11bc ff       ???
11bd ff       ???
11be ff       ???
11bf ff       ???
11c0 ff       ???
11c1 ff       ???
11c2 ff       ???
11c3 ff       ???
11c4 ff       ???
11c5 ff       ???
11c6 ff       ???
11c7 ff       ???
11c8 ff       ???
11c9 ff       ???
11ca ff       ???
11cb ff       ???
11cc ff       ???
11cd ff       ???
11ce ff       ???
11cf ff       ???
11d0 ff       ???
11d1 ff       ???
11d2 ff       ???
11d3 ff       ???
11d4 ff       ???
11d5 ff       ???
11d6 ff       ???
11d7 ff       ???
11d8 ff       ???
11d9 ff       ???
11da ff       ???
11db ff       ???
11dc ff       ???
11dd ff       ???
11de ff       ???
11df ff       ???
11e0 ff       ???
11e1 ff       ???
11e2 ff       ???
11e3 ff       ???
11e4 ff       ???
11e5 ff       ???
11e6 ff       ???
11e7 ff       ???
11e8 ff       ???
11e9 ff       ???
11ea ff       ???
11eb ff       ???
11ec ff       ???
11ed ff       ???
11ee ff       ???
11ef ff       ???
11f0 ff       ???
11f1 ff       ???
11f2 ff       ???
11f3 ff       ???
11f4 ff       ???
11f5 ff       ???
11f6 ff       ???
11f7 ff       ???
11f8 ff       ???
11f9 ff       ???
11fa ff       ???
11fb ff       ???
11fc ff       ???
11fd ff       ???
11fe ff       ???
11ff ff       ???
1200 ff       ???
1201 ff       ???
1202 ff       ???
1203 ff       ???
1204 ff       ???
1205 ff       ???
1206 ff       ???
1207 ff       ???
1208 ff       ???
1209 ff       ???
120a ff       ???
120b ff       ???
120c ff       ???
120d ff       ???
120e ff       ???
120f ff       ???
1210 ff       ???
1211 ff       ???
1212 ff       ???
1213 ff       ???
1214 ff       ???
1215 ff       ???
1216 ff       ???
1217 ff       ???
1218 ff       ???
1219 ff       ???
121a ff       ???
121b ff       ???
121c ff       ???
121d ff       ???
121e ff       ???
121f ff       ???
1220 ff       ???
1221 ff       ???
1222 ff       ???
1223 ff       ???
1224 ff       ???
1225 ff       ???
1226 ff       ???
1227 ff       ???
1228 ff       ???
1229 ff       ???
122a ff       ???
122b ff       ???
122c ff       ???
122d ff       ???
122e ff       ???
122f ff       ???
1230 ff       ???
1231 ff       ???
1232 ff       ???
1233 ff       ???
1234 ff       ???
1235 ff       ???
1236 ff       ???
1237 ff       ???
1238 ff       ???
1239 ff       ???
123a ff       ???
123b ff       ???
123c ff       ???
123d ff       ???
123e ff       ???
123f ff       ???
1240 ff       ???
1241 ff       ???
1242 ff       ???
1243 ff       ???
1244 ff       ???
1245 ff       ???
1246 ff       ???
1247 ff       ???
1248 ff       ???
1249 ff       ???
124a ff       ???
124b ff       ???
124c ff       ???
124d ff       ???
124e ff       ???
124f ff       ???
1250 ff       ???
1251 ff       ???
1252 ff       ???
1253 ff       ???
1254 ff       ???
1255 ff       ???
1256 ff       ???
1257 ff       ???
1258 ff       ???
1259 ff       ???
125a ff       ???
125b ff       ???
125c ff       ???
125d ff       ???
125e ff       ???
125f ff       ???
1260 ff       ???
1261 ff       ???
1262 ff       ???
1263 ff       ???
1264 ff       ???
1265 ff       ???
1266 ff       ???
1267 ff       ???
1268 ff       ???
1269 ff       ???
126a ff       ???
126b ff       ???
126c ff       ???
126d ff       ???
126e ff       ???
126f ff       ???
1270 ff       ???
1271 ff       ???
1272 ff       ???
1273 ff       ???
1274 ff       ???
1275 ff       ???
1276 ff       ???
1277 ff       ???
1278 ff       ???
1279 ff       ???
127a ff       ???
127b ff       ???
127c ff       ???
127d ff       ???
127e ff       ???
127f ff       ???
1280 ff       ???
1281 ff       ???
1282 ff       ???
1283 ff       ???
1284 ff       ???
1285 ff       ???
1286 ff       ???
1287 ff       ???
1288 ff       ???
1289 ff       ???
128a ff       ???
128b ff       ???
128c ff       ???
128d ff       ???
128e ff       ???
128f ff       ???
1290 ff       ???
1291 ff       ???
1292 ff       ???
1293 ff       ???
1294 ff       ???
1295 ff       ???
1296 ff       ???
1297 ff       ???
1298 ff       ???
1299 ff       ???
129a ff       ???
129b ff       ???
129c ff       ???
129d ff       ???
129e ff       ???
129f ff       ???
12a0 ff       ???
12a1 ff       ???
12a2 ff       ???
12a3 ff       ???
12a4 ff       ???
12a5 ff       ???
12a6 ff       ???
12a7 ff       ???
12a8 ff       ???
12a9 ff       ???
12aa ff       ???
12ab ff       ???
12ac ff       ???
12ad ff       ???
12ae ff       ???
12af ff       ???
12b0 ff       ???
12b1 ff       ???
12b2 ff       ???
12b3 ff       ???
12b4 ff       ???
12b5 ff       ???
12b6 ff       ???
12b7 ff       ???
12b8 ff       ???
12b9 ff       ???
12ba ff       ???
12bb ff       ???
12bc ff       ???
12bd ff       ???
12be ff       ???
12bf ff       ???
12c0 ff       ???
12c1 ff       ???
12c2 ff       ???
12c3 ff       ???
12c4 ff       ???
12c5 ff       ???
12c6 ff       ???
12c7 ff       ???
12c8 ff       ???
12c9 ff       ???
12ca ff       ???
12cb ff       ???
12cc ff       ???
12cd ff       ???
12ce ff       ???
12cf ff       ???
12d0 ff       ???
12d1 ff       ???
12d2 ff       ???
12d3 ff       ???
12d4 ff       ???
12d5 ff       ???
12d6 ff       ???
12d7 ff       ???
12d8 ff       ???
12d9 ff       ???
12da ff       ???
12db ff       ???
12dc ff       ???
12dd ff       ???
12de ff       ???
12df ff       ???
12e0 ff       ???
12e1 ff       ???
12e2 ff       ???
12e3 ff       ???
12e4 ff       ???
12e5 ff       ???
12e6 ff       ???
12e7 ff       ???
12e8 ff       ???
12e9 ff       ???
12ea ff       ???
12eb ff       ???
12ec ff       ???
12ed ff       ???
12ee ff       ???
12ef ff       ???
12f0 ff       ???
12f1 ff       ???
12f2 ff       ???
12f3 ff       ???
12f4 ff       ???
12f5 ff       ???
12f6 ff       ???
12f7 ff       ???
12f8 ff       ???
12f9 ff       ???
12fa ff       ???
12fb ff       ???
12fc ff       ???
12fd ff       ???
12fe ff       ???
12ff ff       ???
1300 ff       ???
1301 ff       ???
1302 ff       ???
1303 ff       ???
1304 ff       ???
1305 ff       ???
1306 ff       ???
1307 ff       ???
1308 ff       ???
1309 ff       ???
130a ff       ???
130b ff       ???
130c ff       ???
130d ff       ???
130e ff       ???
130f ff       ???
1310 ff       ???
1311 ff       ???
1312 ff       ???
1313 ff       ???
1314 ff       ???
1315 ff       ???
1316 ff       ???
1317 ff       ???
1318 ff       ???
1319 ff       ???
131a ff       ???
131b ff       ???
131c ff       ???
131d ff       ???
131e ff       ???
131f ff       ???
1320 ff       ???
1321 ff       ???
1322 ff       ???
1323 ff       ???
1324 ff       ???
1325 ff       ???
1326 ff       ???
1327 ff       ???
1328 ff       ???
1329 ff       ???
132a ff       ???
132b ff       ???
132c ff       ???
132d ff       ???
132e ff       ???
132f ff       ???
1330 ff       ???
1331 ff       ???
1332 ff       ???
1333 ff       ???
1334 ff       ???
1335 ff       ???
1336 ff       ???
1337 ff       ???
1338 ff       ???
1339 ff       ???
133a ff       ???
133b ff       ???
133c ff       ???
133d ff       ???
133e ff       ???
133f ff       ???
1340 ff       ???
1341 ff       ???
1342 ff       ???
1343 ff       ???
1344 ff       ???
1345 ff       ???
1346 ff       ???
1347 ff       ???
1348 ff       ???
1349 ff       ???
134a ff       ???
134b ff       ???
134c ff       ???
134d ff       ???
134e ff       ???
134f ff       ???
1350 ff       ???
1351 ff       ???
1352 ff       ???
1353 ff       ???
1354 ff       ???
1355 ff       ???
1356 ff       ???
1357 ff       ???
1358 ff       ???
1359 ff       ???
135a ff       ???
135b ff       ???
135c ff       ???
135d ff       ???
135e ff       ???
135f ff       ???
1360 ff       ???
1361 ff       ???
1362 ff       ???
1363 ff       ???
1364 ff       ???
1365 ff       ???
1366 ff       ???
1367 ff       ???
1368 ff       ???
1369 ff       ???
136a ff       ???
136b ff       ???
136c ff       ???
136d ff       ???
136e ff       ???
136f ff       ???
1370 ff       ???
1371 ff       ???
1372 ff       ???
1373 ff       ???
1374 ff       ???
1375 ff       ???
1376 ff       ???
1377 ff       ???
1378 ff       ???
1379 ff       ???
137a ff       ???
137b ff       ???
137c ff       ???
137d ff       ???
137e ff       ???
137f ff       ???
1380 ff       ???
1381 ff       ???
1382 ff       ???
1383 ff       ???
1384 ff       ???
1385 ff       ???
1386 ff       ???
1387 ff       ???
1388 ff       ???
1389 ff       ???
138a ff       ???
138b ff       ???
138c ff       ???
138d ff       ???
138e ff       ???
138f ff       ???
1390 ff       ???
1391 ff       ???
1392 ff       ???
1393 ff       ???
1394 ff       ???
1395 ff       ???
1396 ff       ???
1397 ff       ???
1398 ff       ???
1399 ff       ???
139a ff       ???
139b ff       ???
139c ff       ???
139d ff       ???
139e ff       ???
139f ff       ???
13a0 ff       ???
13a1 ff       ???
13a2 ff       ???
13a3 ff       ???
13a4 ff       ???
13a5 ff       ???
13a6 ff       ???
13a7 ff       ???
13a8 ff       ???
13a9 ff       ???
13aa ff       ???
13ab ff       ???
13ac ff       ???
13ad ff       ???
13ae ff       ???
13af ff       ???
13b0 ff       ???
13b1 ff       ???
13b2 ff       ???
13b3 ff       ???
13b4 ff       ???
13b5 ff       ???
13b6 ff       ???
13b7 ff       ???
13b8 ff       ???
13b9 ff       ???
13ba ff       ???
13bb ff       ???
13bc ff       ???
13bd ff       ???
13be ff       ???
13bf ff       ???
13c0 ff       ???
13c1 ff       ???
13c2 ff       ???
13c3 ff       ???
13c4 ff       ???
13c5 ff       ???
13c6 ff       ???
13c7 ff       ???
13c8 ff       ???
13c9 ff       ???
13ca ff       ???
13cb ff       ???
13cc ff       ???
13cd ff       ???
13ce ff       ???
13cf ff       ???
13d0 ff       ???
13d1 ff       ???
13d2 ff       ???
13d3 ff       ???
13d4 ff       ???
13d5 ff       ???
13d6 ff       ???
13d7 ff       ???
13d8 ff       ???
13d9 ff       ???
13da ff       ???
13db ff       ???
13dc ff       ???
13dd ff       ???
13de ff       ???
13df ff       ???
13e0 ff       ???
13e1 ff       ???
13e2 ff       ???
13e3 ff       ???
13e4 ff       ???
13e5 ff       ???
13e6 ff       ???
13e7 ff       ???
13e8 ff       ???
13e9 ff       ???
13ea ff       ???
13eb ff       ???
13ec ff       ???
13ed ff       ???
13ee ff       ???
13ef ff       ???
13f0 ff       ???
13f1 ff       ???
13f2 ff       ???
13f3 ff       ???
13f4 ff       ???
13f5 ff       ???
13f6 ff       ???
13f7 ff       ???
13f8 ff       ???
13f9 ff       ???
13fa ff       ???
13fb ff       ???
13fc ff       ???
13fd ff       ???
13fe ff       ???
13ff ff       ???
1400 ff       ???
1401 ff       ???
1402 ff       ???
1403 ff       ???
1404 ff       ???
1405 ff       ???
1406 ff       ???
1407 ff       ???
1408 ff       ???
1409 ff       ???
140a ff       ???
140b ff       ???
140c ff       ???
140d ff       ???
140e ff       ???
140f ff       ???
1410 ff       ???
1411 ff       ???
1412 ff       ???
1413 ff       ???
1414 ff       ???
1415 ff       ???
1416 ff       ???
1417 ff       ???
1418 ff       ???
1419 ff       ???
141a ff       ???
141b ff       ???
141c ff       ???
141d ff       ???
141e ff       ???
141f ff       ???
1420 ff       ???
1421 ff       ???
1422 ff       ???
1423 ff       ???
1424 ff       ???
1425 ff       ???
1426 ff       ???
1427 ff       ???
1428 ff       ???
1429 ff       ???
142a ff       ???
142b ff       ???
142c ff       ???
142d ff       ???
142e ff       ???
142f ff       ???
1430 ff       ???
1431 ff       ???
1432 ff       ???
1433 ff       ???
1434 ff       ???
1435 ff       ???
1436 ff       ???
1437 ff       ???
1438 ff       ???
1439 ff       ???
143a ff       ???
143b ff       ???
143c ff       ???
143d ff       ???
143e ff       ???
143f ff       ???
1440 ff       ???
1441 ff       ???
1442 ff       ???
1443 ff       ???
1444 ff       ???
1445 ff       ???
1446 ff       ???
1447 ff       ???
1448 ff       ???
1449 ff       ???
144a ff       ???
144b ff       ???
144c ff       ???
144d ff       ???
144e ff       ???
144f ff       ???
1450 ff       ???
1451 ff       ???
1452 ff       ???
1453 ff       ???
1454 ff       ???
1455 ff       ???
1456 ff       ???
1457 ff       ???
1458 ff       ???
1459 ff       ???
145a ff       ???
145b ff       ???
145c ff       ???
145d ff       ???
145e ff       ???
145f ff       ???
1460 ff       ???
1461 ff       ???
1462 ff       ???
1463 ff       ???
1464 ff       ???
1465 ff       ???
1466 ff       ???
1467 ff       ???
1468 ff       ???
1469 ff       ???
146a ff       ???
146b ff       ???
146c ff       ???
146d ff       ???
146e ff       ???
146f ff       ???
1470 ff       ???
1471 ff       ???
1472 ff       ???
1473 ff       ???
1474 ff       ???
1475 ff       ???
1476 ff       ???
1477 ff       ???
1478 ff       ???
1479 ff       ???
147a ff       ???
147b ff       ???
147c ff       ???
147d ff       ???
147e ff       ???
147f ff       ???
1480 ff       ???
1481 ff       ???
1482 ff       ???
1483 ff       ???
1484 ff       ???
1485 ff       ???
1486 ff       ???
1487 ff       ???
1488 ff       ???
1489 ff       ???
148a ff       ???
148b ff       ???
148c ff       ???
148d ff       ???
148e ff       ???
148f ff       ???
1490 ff       ???
1491 ff       ???
1492 ff       ???
1493 ff       ???
1494 ff       ???
1495 ff       ???
1496 ff       ???
1497 ff       ???
1498 ff       ???
1499 ff       ???
149a ff       ???
149b ff       ???
149c ff       ???
149d ff       ???
149e ff       ???
149f ff       ???
14a0 ff       ???
14a1 ff       ???
14a2 ff       ???
14a3 ff       ???
14a4 ff       ???
14a5 ff       ???
14a6 ff       ???
14a7 ff       ???
14a8 ff       ???
14a9 ff       ???
14aa ff       ???
14ab ff       ???
14ac ff       ???
14ad ff       ???
14ae ff       ???
14af ff       ???
14b0 ff       ???
14b1 ff       ???
14b2 ff       ???
14b3 ff       ???
14b4 ff       ???
14b5 ff       ???
14b6 ff       ???
14b7 ff       ???
14b8 ff       ???
14b9 ff       ???
14ba ff       ???
14bb ff       ???
14bc ff       ???
14bd ff       ???
14be ff       ???
14bf ff       ???
14c0 ff       ???
14c1 ff       ???
14c2 ff       ???
14c3 ff       ???
14c4 ff       ???
14c5 ff       ???
14c6 ff       ???
14c7 ff       ???
14c8 ff       ???
14c9 ff       ???
14ca ff       ???
14cb ff       ???
14cc ff       ???
14cd ff       ???
14ce ff       ???
14cf ff       ???
14d0 ff       ???
14d1 ff       ???
14d2 ff       ???
14d3 ff       ???
14d4 ff       ???
14d5 ff       ???
14d6 ff       ???
14d7 ff       ???
14d8 ff       ???
14d9 ff       ???
14da ff       ???
14db ff       ???
14dc ff       ???
14dd ff       ???
14de ff       ???
14df ff       ???
14e0 ff       ???
14e1 ff       ???
14e2 ff       ???
14e3 ff       ???
14e4 ff       ???
14e5 ff       ???
14e6 ff       ???
14e7 ff       ???
14e8 ff       ???
14e9 ff       ???
14ea ff       ???
14eb ff       ???
14ec ff       ???
14ed ff       ???
14ee ff       ???
14ef ff       ???
14f0 ff       ???
14f1 ff       ???
14f2 ff       ???
14f3 ff       ???
14f4 ff       ???
14f5 ff       ???
14f6 ff       ???
14f7 ff       ???
14f8 ff       ???
14f9 ff       ???
14fa ff       ???
14fb ff       ???
14fc ff       ???
14fd ff       ???
14fe ff       ???
14ff ff       ???
1500 ff       ???
1501 ff       ???
1502 ff       ???
1503 ff       ???
1504 ff       ???
1505 ff       ???
1506 ff       ???
1507 ff       ???
1508 ff       ???
1509 ff       ???
150a ff       ???
150b ff       ???
150c ff       ???
150d ff       ???
150e ff       ???
150f ff       ???
1510 ff       ???
1511 ff       ???
1512 ff       ???
1513 ff       ???
1514 ff       ???
1515 ff       ???
1516 ff       ???
1517 ff       ???
1518 ff       ???
1519 ff       ???
151a ff       ???
151b ff       ???
151c ff       ???
151d ff       ???
151e ff       ???
151f ff       ???
1520 ff       ???
1521 ff       ???
1522 ff       ???
1523 ff       ???
1524 ff       ???
1525 ff       ???
1526 ff       ???
1527 ff       ???
1528 ff       ???
1529 ff       ???
152a ff       ???
152b ff       ???
152c ff       ???
152d ff       ???
152e ff       ???
152f ff       ???
1530 ff       ???
1531 ff       ???
1532 ff       ???
1533 ff       ???
1534 ff       ???
1535 ff       ???
1536 ff       ???
1537 ff       ???
1538 ff       ???
1539 ff       ???
153a ff       ???
153b ff       ???
153c ff       ???
153d ff       ???
153e ff       ???
153f ff       ???
1540 ff       ???
1541 ff       ???
1542 ff       ???
1543 ff       ???
1544 ff       ???
1545 ff       ???
1546 ff       ???
1547 ff       ???
1548 ff       ???
1549 ff       ???
154a ff       ???
154b ff       ???
154c ff       ???
154d ff       ???
154e ff       ???
154f ff       ???
1550 ff       ???
1551 ff       ???
1552 ff       ???
1553 ff       ???
1554 ff       ???
1555 ff       ???
1556 ff       ???
1557 ff       ???
1558 ff       ???
1559 ff       ???
155a ff       ???
155b ff       ???
155c ff       ???
155d ff       ???
155e ff       ???
155f ff       ???
1560 ff       ???
1561 ff       ???
1562 ff       ???
1563 ff       ???
1564 ff       ???
1565 ff       ???
1566 ff       ???
1567 ff       ???
1568 ff       ???
1569 ff       ???
156a ff       ???
156b ff       ???
156c ff       ???
156d ff       ???
156e ff       ???
156f ff       ???
1570 ff       ???
1571 ff       ???
1572 ff       ???
1573 ff       ???
1574 ff       ???
1575 ff       ???
1576 ff       ???
1577 ff       ???
1578 ff       ???
1579 ff       ???
157a ff       ???
157b ff       ???
157c ff       ???
157d ff       ???
157e ff       ???
157f ff       ???
1580 ff       ???
1581 ff       ???
1582 ff       ???
1583 ff       ???
1584 ff       ???
1585 ff       ???
1586 ff       ???
1587 ff       ???
1588 ff       ???
1589 ff       ???
158a ff       ???
158b ff       ???
158c ff       ???
158d ff       ???
158e ff       ???
158f ff       ???
1590 ff       ???
1591 ff       ???
1592 ff       ???
1593 ff       ???
1594 ff       ???
1595 ff       ???
1596 ff       ???
1597 ff       ???
1598 ff       ???
1599 ff       ???
159a ff       ???
159b ff       ???
159c ff       ???
159d ff       ???
159e ff       ???
159f ff       ???
15a0 ff       ???
15a1 ff       ???
15a2 ff       ???
15a3 ff       ???
15a4 ff       ???
15a5 ff       ???
15a6 ff       ???
15a7 ff       ???
15a8 ff       ???
15a9 ff       ???
15aa ff       ???
15ab ff       ???
15ac ff       ???
15ad ff       ???
15ae ff       ???
15af ff       ???
15b0 ff       ???
15b1 ff       ???
15b2 ff       ???
15b3 ff       ???
15b4 ff       ???
15b5 ff       ???
15b6 ff       ???
15b7 ff       ???
15b8 ff       ???
15b9 ff       ???
15ba ff       ???
15bb ff       ???
15bc ff       ???
15bd ff       ???
15be ff       ???
15bf ff       ???
15c0 ff       ???
15c1 ff       ???
15c2 ff       ???
15c3 ff       ???
15c4 ff       ???
15c5 ff       ???
15c6 ff       ???
15c7 ff       ???
15c8 ff       ???
15c9 ff       ???
15ca ff       ???
15cb ff       ???
15cc ff       ???
15cd ff       ???
15ce ff       ???
15cf ff       ???
15d0 ff       ???
15d1 ff       ???
15d2 ff       ???
15d3 ff       ???
15d4 ff       ???
15d5 ff       ???
15d6 ff       ???
15d7 ff       ???
15d8 ff       ???
15d9 ff       ???
15da ff       ???
15db ff       ???
15dc ff       ???
15dd ff       ???
15de ff       ???
15df ff       ???
15e0 ff       ???
15e1 ff       ???
15e2 ff       ???
15e3 ff       ???
15e4 ff       ???
15e5 ff       ???
15e6 ff       ???
15e7 ff       ???
15e8 ff       ???
15e9 ff       ???
15ea ff       ???
15eb ff       ???
15ec ff       ???
15ed ff       ???
15ee ff       ???
15ef ff       ???
15f0 ff       ???
15f1 ff       ???
15f2 ff       ???
15f3 ff       ???
15f4 ff       ???
15f5 ff       ???
15f6 ff       ???
15f7 ff       ???
15f8 ff       ???
15f9 ff       ???
15fa ff       ???
15fb ff       ???
15fc ff       ???
15fd ff       ???
15fe ff       ???
15ff ff       ???
1600 ff       ???
1601 ff       ???
1602 ff       ???
1603 ff       ???
1604 ff       ???
1605 ff       ???
1606 ff       ???
1607 ff       ???
1608 ff       ???
1609 ff       ???
160a ff       ???
160b ff       ???
160c ff       ???
160d ff       ???
160e ff       ???
160f ff       ???
1610 ff       ???
1611 ff       ???
1612 ff       ???
1613 ff       ???
1614 ff       ???
1615 ff       ???
1616 ff       ???
1617 ff       ???
1618 ff       ???
1619 ff       ???
161a ff       ???
161b ff       ???
161c ff       ???
161d ff       ???
161e ff       ???
161f ff       ???
1620 ff       ???
1621 ff       ???
1622 ff       ???
1623 ff       ???
1624 ff       ???
1625 ff       ???
1626 ff       ???
1627 ff       ???
1628 ff       ???
1629 ff       ???
162a ff       ???
162b ff       ???
162c ff       ???
162d ff       ???
162e ff       ???
162f ff       ???
1630 ff       ???
1631 ff       ???
1632 ff       ???
1633 ff       ???
1634 ff       ???
1635 ff       ???
1636 ff       ???
1637 ff       ???
1638 ff       ???
1639 ff       ???
163a ff       ???
163b ff       ???
163c ff       ???
163d ff       ???
163e ff       ???
163f ff       ???
1640 ff       ???
1641 ff       ???
1642 ff       ???
1643 ff       ???
1644 ff       ???
1645 ff       ???
1646 ff       ???
1647 ff       ???
1648 ff       ???
1649 ff       ???
164a ff       ???
164b ff       ???
164c ff       ???
164d ff       ???
164e ff       ???
164f ff       ???
1650 ff       ???
1651 ff       ???
1652 ff       ???
1653 ff       ???
1654 ff       ???
1655 ff       ???
1656 ff       ???
1657 ff       ???
1658 ff       ???
1659 ff       ???
165a ff       ???
165b ff       ???
165c ff       ???
165d ff       ???
165e ff       ???
165f ff       ???
1660 ff       ???
1661 ff       ???
1662 ff       ???
1663 ff       ???
1664 ff       ???
1665 ff       ???
1666 ff       ???
1667 ff       ???
1668 ff       ???
1669 ff       ???
166a ff       ???
166b ff       ???
166c ff       ???
166d ff       ???
166e ff       ???
166f ff       ???
1670 ff       ???
1671 ff       ???
1672 ff       ???
1673 ff       ???
1674 ff       ???
1675 ff       ???
1676 ff       ???
1677 ff       ???
1678 ff       ???
1679 ff       ???
167a ff       ???
167b ff       ???
167c ff       ???
167d ff       ???
167e ff       ???
167f ff       ???
1680 ff       ???
1681 ff       ???
1682 ff       ???
1683 ff       ???
1684 ff       ???
1685 ff       ???
1686 ff       ???
1687 ff       ???
1688 ff       ???
1689 ff       ???
168a ff       ???
168b ff       ???
168c ff       ???
168d ff       ???
168e ff       ???
168f ff       ???
1690 ff       ???
1691 ff       ???
1692 ff       ???
1693 ff       ???
1694 ff       ???
1695 ff       ???
1696 ff       ???
1697 ff       ???
1698 ff       ???
1699 ff       ???
169a ff       ???
169b ff       ???
169c ff       ???
169d ff       ???
169e ff       ???
169f ff       ???
16a0 ff       ???
16a1 ff       ???
16a2 ff       ???
16a3 ff       ???
16a4 ff       ???
16a5 ff       ???
16a6 ff       ???
16a7 ff       ???
16a8 ff       ???
16a9 ff       ???
16aa ff       ???
16ab ff       ???
16ac ff       ???
16ad ff       ???
16ae ff       ???
16af ff       ???
16b0 ff       ???
16b1 ff       ???
16b2 ff       ???
16b3 ff       ???
16b4 ff       ???
16b5 ff       ???
16b6 ff       ???
16b7 ff       ???
16b8 ff       ???
16b9 ff       ???
16ba ff       ???
16bb ff       ???
16bc ff       ???
16bd ff       ???
16be ff       ???
16bf ff       ???
16c0 ff       ???
16c1 ff       ???
16c2 ff       ???
16c3 ff       ???
16c4 ff       ???
16c5 ff       ???
16c6 ff       ???
16c7 ff       ???
16c8 ff       ???
16c9 ff       ???
16ca ff       ???
16cb ff       ???
16cc ff       ???
16cd ff       ???
16ce ff       ???
16cf ff       ???
16d0 ff       ???
16d1 ff       ???
16d2 ff       ???
16d3 ff       ???
16d4 ff       ???
16d5 ff       ???
16d6 ff       ???
16d7 ff       ???
16d8 ff       ???
16d9 ff       ???
16da ff       ???
16db ff       ???
16dc ff       ???
16dd ff       ???
16de ff       ???
16df ff       ???
16e0 ff       ???
16e1 ff       ???
16e2 ff       ???
16e3 ff       ???
16e4 ff       ???
16e5 ff       ???
16e6 ff       ???
16e7 ff       ???
16e8 ff       ???
16e9 ff       ???
16ea ff       ???
16eb ff       ???
16ec ff       ???
16ed ff       ???
16ee ff       ???
16ef ff       ???
16f0 ff       ???
16f1 ff       ???
16f2 ff       ???
16f3 ff       ???
16f4 ff       ???
16f5 ff       ???
16f6 ff       ???
16f7 ff       ???
16f8 ff       ???
16f9 ff       ???
16fa ff       ???
16fb ff       ???
16fc ff       ???
16fd ff       ???
16fe ff       ???
16ff ff       ???
1700 ff       ???
1701 ff       ???
1702 ff       ???
1703 ff       ???
1704 ff       ???
1705 ff       ???
1706 ff       ???
1707 ff       ???
1708 ff       ???
1709 ff       ???
170a ff       ???
170b ff       ???
170c ff       ???
170d ff       ???
170e ff       ???
170f ff       ???
1710 ff       ???
1711 ff       ???
1712 ff       ???
1713 ff       ???
1714 ff       ???
1715 ff       ???
1716 ff       ???
1717 ff       ???
1718 ff       ???
1719 ff       ???
171a ff       ???
171b ff       ???
171c ff       ???
171d ff       ???
171e ff       ???
171f ff       ???
1720 ff       ???
1721 ff       ???
1722 ff       ???
1723 ff       ???
1724 ff       ???
1725 ff       ???
1726 ff       ???
1727 ff       ???
1728 ff       ???
1729 ff       ???
172a ff       ???
172b ff       ???
172c ff       ???
172d ff       ???
172e ff       ???
172f ff       ???
1730 ff       ???
1731 ff       ???
1732 ff       ???
1733 ff       ???
1734 ff       ???
1735 ff       ???
1736 ff       ???
1737 ff       ???
1738 ff       ???
1739 ff       ???
173a ff       ???
173b ff       ???
173c ff       ???
173d ff       ???
173e ff       ???
173f ff       ???
1740 ff       ???
1741 ff       ???
1742 ff       ???
1743 ff       ???
1744 ff       ???
1745 ff       ???
1746 ff       ???
1747 ff       ???
1748 ff       ???
1749 ff       ???
174a ff       ???
174b ff       ???
174c ff       ???
174d ff       ???
174e ff       ???
174f ff       ???
1750 ff       ???
1751 ff       ???
1752 ff       ???
1753 ff       ???
1754 ff       ???
1755 ff       ???
1756 ff       ???
1757 ff       ???
1758 ff       ???
1759 ff       ???
175a ff       ???
175b ff       ???
175c ff       ???
175d ff       ???
175e ff       ???
175f ff       ???
1760 ff       ???
1761 ff       ???
1762 ff       ???
1763 ff       ???
1764 ff       ???
1765 ff       ???
1766 ff       ???
1767 ff       ???
1768 ff       ???
1769 ff       ???
176a ff       ???
176b ff       ???
176c ff       ???
176d ff       ???
176e ff       ???
176f ff       ???
1770 ff       ???
1771 ff       ???
1772 ff       ???
1773 ff       ???
1774 ff       ???
1775 ff       ???
1776 ff       ???
1777 ff       ???
1778 ff       ???
1779 ff       ???
177a ff       ???
177b ff       ???
177c ff       ???
177d ff       ???
177e ff       ???
177f ff       ???
1780 ff       ???
1781 ff       ???
1782 ff       ???
1783 ff       ???
1784 ff       ???
1785 ff       ???
1786 ff       ???
1787 ff       ???
1788 ff       ???
1789 ff       ???
178a ff       ???
178b ff       ???
178c ff       ???
178d ff       ???
178e ff       ???
178f ff       ???
1790 ff       ???
1791 ff       ???
1792 ff       ???
1793 ff       ???
1794 ff       ???
1795 ff       ???
1796 ff       ???
1797 ff       ???
1798 ff       ???
1799 ff       ???
179a ff       ???
179b ff       ???
179c ff       ???
179d ff       ???
179e ff       ???
179f ff       ???
17a0 ff       ???
17a1 ff       ???
17a2 ff       ???
17a3 ff       ???
17a4 ff       ???
17a5 ff       ???
17a6 ff       ???
17a7 ff       ???
17a8 ff       ???
17a9 ff       ???
17aa ff       ???
17ab ff       ???
17ac ff       ???
17ad ff       ???
17ae ff       ???
17af ff       ???
17b0 ff       ???
17b1 ff       ???
17b2 ff       ???
17b3 ff       ???
17b4 ff       ???
17b5 ff       ???
17b6 ff       ???
17b7 ff       ???
17b8 ff       ???
17b9 ff       ???
17ba ff       ???
17bb ff       ???
17bc ff       ???
17bd ff       ???
17be ff       ???
17bf ff       ???
17c0 ff       ???
17c1 ff       ???
17c2 ff       ???
17c3 ff       ???
17c4 ff       ???
17c5 ff       ???
17c6 ff       ???
17c7 ff       ???
17c8 ff       ???
17c9 ff       ???
17ca ff       ???
17cb ff       ???
17cc ff       ???
17cd ff       ???
17ce ff       ???
17cf ff       ???
17d0 ff       ???
17d1 ff       ???
17d2 ff       ???
17d3 ff       ???
17d4 ff       ???
17d5 ff       ???
17d6 ff       ???
17d7 ff       ???
17d8 ff       ???
17d9 ff       ???
17da ff       ???
17db ff       ???
17dc ff       ???
17dd ff       ???
17de ff       ???
17df ff       ???
17e0 ff       ???
17e1 ff       ???
17e2 ff       ???
17e3 ff       ???
17e4 ff       ???
17e5 ff       ???
17e6 ff       ???
17e7 ff       ???
17e8 ff       ???
17e9 ff       ???
17ea ff       ???
17eb ff       ???
17ec ff       ???
17ed ff       ???
17ee ff       ???
17ef ff       ???
17f0 ff       ???
17f1 ff       ???
17f2 ff       ???
17f3 ff       ???
17f4 ff       ???
17f5 ff       ???
17f6 ff       ???
17f7 ff       ???
17f8 ff       ???
17f9 ff       ???
17fa ff       ???
17fb ff       ???
17fc ff       ???
17fd ff       ???
17fe ff       ???
17ff ff       ???
1800 ff       ???
1801 ff       ???
1802 ff       ???
1803 ff       ???
1804 ff       ???
1805 ff       ???
1806 ff       ???
1807 ff       ???
1808 ff       ???
1809 ff       ???
180a ff       ???
180b ff       ???
180c ff       ???
180d ff       ???
180e ff       ???
180f ff       ???
1810 ff       ???
1811 ff       ???
1812 ff       ???
1813 ff       ???
1814 ff       ???
1815 ff       ???
1816 ff       ???
1817 ff       ???
1818 ff       ???
1819 ff       ???
181a ff       ???
181b ff       ???
181c ff       ???
181d ff       ???
181e ff       ???
181f ff       ???
1820 ff       ???
1821 ff       ???
1822 ff       ???
1823 ff       ???
1824 ff       ???
1825 ff       ???
1826 ff       ???
1827 ff       ???
1828 ff       ???
1829 ff       ???
182a ff       ???
182b ff       ???
182c ff       ???
182d ff       ???
182e ff       ???
182f ff       ???
1830 ff       ???
1831 ff       ???
1832 ff       ???
1833 ff       ???
1834 ff       ???
1835 ff       ???
1836 ff       ???
1837 ff       ???
1838 ff       ???
1839 ff       ???
183a ff       ???
183b ff       ???
183c ff       ???
183d ff       ???
183e ff       ???
183f ff       ???
1840 ff       ???
1841 ff       ???
1842 ff       ???
1843 ff       ???
1844 ff       ???
1845 ff       ???
1846 ff       ???
1847 ff       ???
1848 ff       ???
1849 ff       ???
184a ff       ???
184b ff       ???
184c ff       ???
184d ff       ???
184e ff       ???
184f ff       ???
1850 ff       ???
1851 ff       ???
1852 ff       ???
1853 ff       ???
1854 ff       ???
1855 ff       ???
1856 ff       ???
1857 ff       ???
1858 ff       ???
1859 ff       ???
185a ff       ???
185b ff       ???
185c ff       ???
185d ff       ???
185e ff       ???
185f ff       ???
1860 ff       ???
1861 ff       ???
1862 ff       ???
1863 ff       ???
1864 ff       ???
1865 ff       ???
1866 ff       ???
1867 ff       ???
1868 ff       ???
1869 ff       ???
186a ff       ???
186b ff       ???
186c ff       ???
186d ff       ???
186e ff       ???
186f ff       ???
1870 ff       ???
1871 ff       ???
1872 ff       ???
1873 ff       ???
1874 ff       ???
1875 ff       ???
1876 ff       ???
1877 ff       ???
1878 ff       ???
1879 ff       ???
187a ff       ???
187b ff       ???
187c ff       ???
187d ff       ???
187e ff       ???
187f ff       ???
1880 ff       ???
1881 ff       ???
1882 ff       ???
1883 ff       ???
1884 ff       ???
1885 ff       ???
1886 ff       ???
1887 ff       ???
1888 ff       ???
1889 ff       ???
188a ff       ???
188b ff       ???
188c ff       ???
188d ff       ???
188e ff       ???
188f ff       ???
1890 ff       ???
1891 ff       ???
1892 ff       ???
1893 ff       ???
1894 ff       ???
1895 ff       ???
1896 ff       ???
1897 ff       ???
1898 ff       ???
1899 ff       ???
189a ff       ???
189b ff       ???
189c ff       ???
189d ff       ???
189e ff       ???
189f ff       ???
18a0 ff       ???
18a1 ff       ???
18a2 ff       ???
18a3 ff       ???
18a4 ff       ???
18a5 ff       ???
18a6 ff       ???
18a7 ff       ???
18a8 ff       ???
18a9 ff       ???
18aa ff       ???
18ab ff       ???
18ac ff       ???
18ad ff       ???
18ae ff       ???
18af ff       ???
18b0 ff       ???
18b1 ff       ???
18b2 ff       ???
18b3 ff       ???
18b4 ff       ???
18b5 ff       ???
18b6 ff       ???
18b7 ff       ???
18b8 ff       ???
18b9 ff       ???
18ba ff       ???
18bb ff       ???
18bc ff       ???
18bd ff       ???
18be ff       ???
18bf ff       ???
18c0 ff       ???
18c1 ff       ???
18c2 ff       ???
18c3 ff       ???
18c4 ff       ???
18c5 ff       ???
18c6 ff       ???
18c7 ff       ???
18c8 ff       ???
18c9 ff       ???
18ca ff       ???
18cb ff       ???
18cc ff       ???
18cd ff       ???
18ce ff       ???
18cf ff       ???
18d0 ff       ???
18d1 ff       ???
18d2 ff       ???
18d3 ff       ???
18d4 ff       ???
18d5 ff       ???
18d6 ff       ???
18d7 ff       ???
18d8 ff       ???
18d9 ff       ???
18da ff       ???
18db ff       ???
18dc ff       ???
18dd ff       ???
18de ff       ???
18df ff       ???
18e0 ff       ???
18e1 ff       ???
18e2 ff       ???
18e3 ff       ???
18e4 ff       ???
18e5 ff       ???
18e6 ff       ???
18e7 ff       ???
18e8 ff       ???
18e9 ff       ???
18ea ff       ???
18eb ff       ???
18ec ff       ???
18ed ff       ???
18ee ff       ???
18ef ff       ???
18f0 ff       ???
18f1 ff       ???
18f2 ff       ???
18f3 ff       ???
18f4 ff       ???
18f5 ff       ???
18f6 ff       ???
18f7 ff       ???
18f8 ff       ???
18f9 ff       ???
18fa ff       ???
18fb ff       ???
18fc ff       ???
18fd ff       ???
18fe ff       ???
18ff ff       ???
1900 ff       ???
1901 ff       ???
1902 ff       ???
1903 ff       ???
1904 ff       ???
1905 ff       ???
1906 ff       ???
1907 ff       ???
1908 ff       ???
1909 ff       ???
190a ff       ???
190b ff       ???
190c ff       ???
190d ff       ???
190e ff       ???
190f ff       ???
1910 ff       ???
1911 ff       ???
1912 ff       ???
1913 ff       ???
1914 ff       ???
1915 ff       ???
1916 ff       ???
1917 ff       ???
1918 ff       ???
1919 ff       ???
191a ff       ???
191b ff       ???
191c ff       ???
191d ff       ???
191e ff       ???
191f ff       ???
1920 ff       ???
1921 ff       ???
1922 ff       ???
1923 ff       ???
1924 ff       ???
1925 ff       ???
1926 ff       ???
1927 ff       ???
1928 ff       ???
1929 ff       ???
192a ff       ???
192b ff       ???
192c ff       ???
192d ff       ???
192e ff       ???
192f ff       ???
1930 ff       ???
1931 ff       ???
1932 ff       ???
1933 ff       ???
1934 ff       ???
1935 ff       ???
1936 ff       ???
1937 ff       ???
1938 ff       ???
1939 ff       ???
193a ff       ???
193b ff       ???
193c ff       ???
193d ff       ???
193e ff       ???
193f ff       ???
1940 ff       ???
1941 ff       ???
1942 ff       ???
1943 ff       ???
1944 ff       ???
1945 ff       ???
1946 ff       ???
1947 ff       ???
1948 ff       ???
1949 ff       ???
194a ff       ???
194b ff       ???
194c ff       ???
194d ff       ???
194e ff       ???
194f ff       ???
1950 ff       ???
1951 ff       ???
1952 ff       ???
1953 ff       ???
1954 ff       ???
1955 ff       ???
1956 ff       ???
1957 ff       ???
1958 ff       ???
1959 ff       ???
195a ff       ???
195b ff       ???
195c ff       ???
195d ff       ???
195e ff       ???
195f ff       ???
1960 ff       ???
1961 ff       ???
1962 ff       ???
1963 ff       ???
1964 ff       ???
1965 ff       ???
1966 ff       ???
1967 ff       ???
1968 ff       ???
1969 ff       ???
196a ff       ???
196b ff       ???
196c ff       ???
196d ff       ???
196e ff       ???
196f ff       ???
1970 ff       ???
1971 ff       ???
1972 ff       ???
1973 ff       ???
1974 ff       ???
1975 ff       ???
1976 ff       ???
1977 ff       ???
1978 ff       ???
1979 ff       ???
197a ff       ???
197b ff       ???
197c ff       ???
197d ff       ???
197e ff       ???
197f ff       ???
1980 ff       ???
1981 ff       ???
1982 ff       ???
1983 ff       ???
1984 ff       ???
1985 ff       ???
1986 ff       ???
1987 ff       ???
1988 ff       ???
1989 ff       ???
198a ff       ???
198b ff       ???
198c ff       ???
198d ff       ???
198e ff       ???
198f ff       ???
1990 ff       ???
1991 ff       ???
1992 ff       ???
1993 ff       ???
1994 ff       ???
1995 ff       ???
1996 ff       ???
1997 ff       ???
1998 ff       ???
1999 ff       ???
199a ff       ???
199b ff       ???
199c ff       ???
199d ff       ???
199e ff       ???
199f ff       ???
19a0 ff       ???
19a1 ff       ???
19a2 ff       ???
19a3 ff       ???
19a4 ff       ???
19a5 ff       ???
19a6 ff       ???
19a7 ff       ???
19a8 ff       ???
19a9 ff       ???
19aa ff       ???
19ab ff       ???
19ac ff       ???
19ad ff       ???
19ae ff       ???
19af ff       ???
19b0 ff       ???
19b1 ff       ???
19b2 ff       ???
19b3 ff       ???
19b4 ff       ???
19b5 ff       ???
19b6 ff       ???
19b7 ff       ???
19b8 ff       ???
19b9 ff       ???
19ba ff       ???
19bb ff       ???
19bc ff       ???
19bd ff       ???
19be ff       ???
19bf ff       ???
19c0 ff       ???
19c1 ff       ???
19c2 ff       ???
19c3 ff       ???
19c4 ff       ???
19c5 ff       ???
19c6 ff       ???
19c7 ff       ???
19c8 ff       ???
19c9 ff       ???
19ca ff       ???
19cb ff       ???
19cc ff       ???
19cd ff       ???
19ce ff       ???
19cf ff       ???
19d0 ff       ???
19d1 ff       ???
19d2 ff       ???
19d3 ff       ???
19d4 ff       ???
19d5 ff       ???
19d6 ff       ???
19d7 ff       ???
19d8 ff       ???
19d9 ff       ???
19da ff       ???
19db ff       ???
19dc ff       ???
19dd ff       ???
19de ff       ???
19df ff       ???
19e0 ff       ???
19e1 ff       ???
19e2 ff       ???
19e3 ff       ???
19e4 ff       ???
19e5 ff       ???
19e6 ff       ???
19e7 ff       ???
19e8 ff       ???
19e9 ff       ???
19ea ff       ???
19eb ff       ???
19ec ff       ???
19ed ff       ???
19ee ff       ???
19ef ff       ???
19f0 ff       ???
19f1 ff       ???
19f2 ff       ???
19f3 ff       ???
19f4 ff       ???
19f5 ff       ???
19f6 ff       ???
19f7 ff       ???
19f8 ff       ???
19f9 ff       ???
19fa ff       ???
19fb ff       ???
19fc ff       ???
19fd ff       ???
19fe ff       ???
19ff ff       ???
1a00 ff       ???
1a01 ff       ???
1a02 ff       ???
1a03 ff       ???
1a04 ff       ???
1a05 ff       ???
1a06 ff       ???
1a07 ff       ???
1a08 ff       ???
1a09 ff       ???
1a0a ff       ???
1a0b ff       ???
1a0c ff       ???
1a0d ff       ???
1a0e ff       ???
1a0f ff       ???
1a10 ff       ???
1a11 ff       ???
1a12 ff       ???
1a13 ff       ???
1a14 ff       ???
1a15 ff       ???
1a16 ff       ???
1a17 ff       ???
1a18 ff       ???
1a19 ff       ???
1a1a ff       ???
1a1b ff       ???
1a1c ff       ???
1a1d ff       ???
1a1e ff       ???
1a1f ff       ???
1a20 ff       ???
1a21 ff       ???
1a22 ff       ???
1a23 ff       ???
1a24 ff       ???
1a25 ff       ???
1a26 ff       ???
1a27 ff       ???
1a28 ff       ???
1a29 ff       ???
1a2a ff       ???
1a2b ff       ???
1a2c ff       ???
1a2d ff       ???
1a2e ff       ???
1a2f ff       ???
1a30 ff       ???
1a31 ff       ???
1a32 ff       ???
1a33 ff       ???
1a34 ff       ???
1a35 ff       ???
1a36 ff       ???
1a37 ff       ???
1a38 ff       ???
1a39 ff       ???
1a3a ff       ???
1a3b ff       ???
1a3c ff       ???
1a3d ff       ???
1a3e ff       ???
1a3f ff       ???
1a40 ff       ???
1a41 ff       ???
1a42 ff       ???
1a43 ff       ???
1a44 ff       ???
1a45 ff       ???
1a46 ff       ???
1a47 ff       ???
1a48 ff       ???
1a49 ff       ???
1a4a ff       ???
1a4b ff       ???
1a4c ff       ???
1a4d ff       ???
1a4e ff       ???
1a4f ff       ???
1a50 ff       ???
1a51 ff       ???
1a52 ff       ???
1a53 ff       ???
1a54 ff       ???
1a55 ff       ???
1a56 ff       ???
1a57 ff       ???
1a58 ff       ???
1a59 ff       ???
1a5a ff       ???
1a5b ff       ???
1a5c ff       ???
1a5d ff       ???
1a5e ff       ???
1a5f ff       ???
1a60 ff       ???
1a61 ff       ???
1a62 ff       ???
1a63 ff       ???
1a64 ff       ???
1a65 ff       ???
1a66 ff       ???
1a67 ff       ???
1a68 ff       ???
1a69 ff       ???
1a6a ff       ???
1a6b ff       ???
1a6c ff       ???
1a6d ff       ???
1a6e ff       ???
1a6f ff       ???
1a70 ff       ???
1a71 ff       ???
1a72 ff       ???
1a73 ff       ???
1a74 ff       ???
1a75 ff       ???
1a76 ff       ???
1a77 ff       ???
1a78 ff       ???
1a79 ff       ???
1a7a ff       ???
1a7b ff       ???
1a7c ff       ???
1a7d ff       ???
1a7e ff       ???
1a7f ff       ???
1a80 ff       ???
1a81 ff       ???
1a82 ff       ???
1a83 ff       ???
1a84 ff       ???
1a85 ff       ???
1a86 ff       ???
1a87 ff       ???
1a88 ff       ???
1a89 ff       ???
1a8a ff       ???
1a8b ff       ???
1a8c ff       ???
1a8d ff       ???
1a8e ff       ???
1a8f ff       ???
1a90 ff       ???
1a91 ff       ???
1a92 ff       ???
1a93 ff       ???
1a94 ff       ???
1a95 ff       ???
1a96 ff       ???
1a97 ff       ???
1a98 ff       ???
1a99 ff       ???
1a9a ff       ???
1a9b ff       ???
1a9c ff       ???
1a9d ff       ???
1a9e ff       ???
1a9f ff       ???
1aa0 ff       ???
1aa1 ff       ???
1aa2 ff       ???
1aa3 ff       ???
1aa4 ff       ???
1aa5 ff       ???
1aa6 ff       ???
1aa7 ff       ???
1aa8 ff       ???
1aa9 ff       ???
1aaa ff       ???
1aab ff       ???
1aac ff       ???
1aad ff       ???
1aae ff       ???
1aaf ff       ???
1ab0 ff       ???
1ab1 ff       ???
1ab2 ff       ???
1ab3 ff       ???
1ab4 ff       ???
1ab5 ff       ???
1ab6 ff       ???
1ab7 ff       ???
1ab8 ff       ???
1ab9 ff       ???
1aba ff       ???
1abb ff       ???
1abc ff       ???
1abd ff       ???
1abe ff       ???
1abf ff       ???
1ac0 ff       ???
1ac1 ff       ???
1ac2 ff       ???
1ac3 ff       ???
1ac4 ff       ???
1ac5 ff       ???
1ac6 ff       ???
1ac7 ff       ???
1ac8 ff       ???
1ac9 ff       ???
1aca ff       ???
1acb ff       ???
1acc ff       ???
1acd ff       ???
1ace ff       ???
1acf ff       ???
1ad0 ff       ???
1ad1 ff       ???
1ad2 ff       ???
1ad3 ff       ???
1ad4 ff       ???
1ad5 ff       ???
1ad6 ff       ???
1ad7 ff       ???
1ad8 ff       ???
1ad9 ff       ???
1ada ff       ???
1adb ff       ???
1adc ff       ???
1add ff       ???
1ade ff       ???
1adf ff       ???
1ae0 ff       ???
1ae1 ff       ???
1ae2 ff       ???
1ae3 ff       ???
1ae4 ff       ???
1ae5 ff       ???
1ae6 ff       ???
1ae7 ff       ???
1ae8 ff       ???
1ae9 ff       ???
1aea ff       ???
1aeb ff       ???
1aec ff       ???
1aed ff       ???
1aee ff       ???
1aef ff       ???
1af0 ff       ???
1af1 ff       ???
1af2 ff       ???
1af3 ff       ???
1af4 ff       ???
1af5 ff       ???
1af6 ff       ???
1af7 ff       ???
1af8 ff       ???
1af9 ff       ???
1afa ff       ???
1afb ff       ???
1afc ff       ???
1afd ff       ???
1afe ff       ???
1aff ff       ???
1b00 ff       ???
1b01 ff       ???
1b02 ff       ???
1b03 ff       ???
1b04 ff       ???
1b05 ff       ???
1b06 ff       ???
1b07 ff       ???
1b08 ff       ???
1b09 ff       ???
1b0a ff       ???
1b0b ff       ???
1b0c ff       ???
1b0d ff       ???
1b0e ff       ???
1b0f ff       ???
1b10 ff       ???
1b11 ff       ???
1b12 ff       ???
1b13 ff       ???
1b14 ff       ???
1b15 ff       ???
1b16 ff       ???
1b17 ff       ???
1b18 ff       ???
1b19 ff       ???
1b1a ff       ???
1b1b ff       ???
1b1c ff       ???
1b1d ff       ???
1b1e ff       ???
1b1f ff       ???
1b20 ff       ???
1b21 ff       ???
1b22 ff       ???
1b23 ff       ???
1b24 ff       ???
1b25 ff       ???
1b26 ff       ???
1b27 ff       ???
1b28 ff       ???
1b29 ff       ???
1b2a ff       ???
1b2b ff       ???
1b2c ff       ???
1b2d ff       ???
1b2e ff       ???
1b2f ff       ???
1b30 ff       ???
1b31 ff       ???
1b32 ff       ???
1b33 ff       ???
1b34 ff       ???
1b35 ff       ???
1b36 ff       ???
1b37 ff       ???
1b38 ff       ???
1b39 ff       ???
1b3a ff       ???
1b3b ff       ???
1b3c ff       ???
1b3d ff       ???
1b3e ff       ???
1b3f ff       ???
1b40 ff       ???
1b41 ff       ???
1b42 ff       ???
1b43 ff       ???
1b44 ff       ???
1b45 ff       ???
1b46 ff       ???
1b47 ff       ???
1b48 ff       ???
1b49 ff       ???
1b4a ff       ???
1b4b ff       ???
1b4c ff       ???
1b4d ff       ???
1b4e ff       ???
1b4f ff       ???
1b50 ff       ???
1b51 ff       ???
1b52 ff       ???
1b53 ff       ???
1b54 ff       ???
1b55 ff       ???
1b56 ff       ???
1b57 ff       ???
1b58 ff       ???
1b59 ff       ???
1b5a ff       ???
1b5b ff       ???
1b5c ff       ???
1b5d ff       ???
1b5e ff       ???
1b5f ff       ???
1b60 ff       ???
1b61 ff       ???
1b62 ff       ???
1b63 ff       ???
1b64 ff       ???
1b65 ff       ???
1b66 ff       ???
1b67 ff       ???
1b68 ff       ???
1b69 ff       ???
1b6a ff       ???
1b6b ff       ???
1b6c ff       ???
1b6d ff       ???
1b6e ff       ???
1b6f ff       ???
1b70 ff       ???
1b71 ff       ???
1b72 ff       ???
1b73 ff       ???
1b74 ff       ???
1b75 ff       ???
1b76 ff       ???
1b77 ff       ???
1b78 ff       ???
1b79 ff       ???
1b7a ff       ???
1b7b ff       ???
1b7c ff       ???
1b7d ff       ???
1b7e ff       ???
1b7f ff       ???
1b80 ff       ???
1b81 ff       ???
1b82 ff       ???
1b83 ff       ???
1b84 ff       ???
1b85 ff       ???
1b86 ff       ???
1b87 ff       ???
1b88 ff       ???
1b89 ff       ???
1b8a ff       ???
1b8b ff       ???
1b8c ff       ???
1b8d ff       ???
1b8e ff       ???
1b8f ff       ???
1b90 ff       ???
1b91 ff       ???
1b92 ff       ???
1b93 ff       ???
1b94 ff       ???
1b95 ff       ???
1b96 ff       ???
1b97 ff       ???
1b98 ff       ???
1b99 ff       ???
1b9a ff       ???
1b9b ff       ???
1b9c ff       ???
1b9d ff       ???
1b9e ff       ???
1b9f ff       ???
1ba0 ff       ???
1ba1 ff       ???
1ba2 ff       ???
1ba3 ff       ???
1ba4 ff       ???
1ba5 ff       ???
1ba6 ff       ???
1ba7 ff       ???
1ba8 ff       ???
1ba9 ff       ???
1baa ff       ???
1bab ff       ???
1bac ff       ???
1bad ff       ???
1bae ff       ???
1baf ff       ???
1bb0 ff       ???
1bb1 ff       ???
1bb2 ff       ???
1bb3 ff       ???
1bb4 ff       ???
1bb5 ff       ???
1bb6 ff       ???
1bb7 ff       ???
1bb8 ff       ???
1bb9 ff       ???
1bba ff       ???
1bbb ff       ???
1bbc ff       ???
1bbd ff       ???
1bbe ff       ???
1bbf ff       ???
1bc0 ff       ???
1bc1 ff       ???
1bc2 ff       ???
1bc3 ff       ???
1bc4 ff       ???
1bc5 ff       ???
1bc6 ff       ???
1bc7 ff       ???
1bc8 ff       ???
1bc9 ff       ???
1bca ff       ???
1bcb ff       ???
1bcc ff       ???
1bcd ff       ???
1bce ff       ???
1bcf ff       ???
1bd0 ff       ???
1bd1 ff       ???
1bd2 ff       ???
1bd3 ff       ???
1bd4 ff       ???
1bd5 ff       ???
1bd6 ff       ???
1bd7 ff       ???
1bd8 ff       ???
1bd9 ff       ???
1bda ff       ???
1bdb ff       ???
1bdc ff       ???
1bdd ff       ???
1bde ff       ???
1bdf ff       ???
1be0 ff       ???
1be1 ff       ???
1be2 ff       ???
1be3 ff       ???
1be4 ff       ???
1be5 ff       ???
1be6 ff       ???
1be7 ff       ???
1be8 ff       ???
1be9 ff       ???
1bea ff       ???
1beb ff       ???
1bec ff       ???
1bed ff       ???
1bee ff       ???
1bef ff       ???
1bf0 ff       ???
1bf1 ff       ???
1bf2 ff       ???
1bf3 ff       ???
1bf4 ff       ???
1bf5 ff       ???
1bf6 ff       ???
1bf7 ff       ???
1bf8 ff       ???
1bf9 ff       ???
1bfa ff       ???
1bfb ff       ???
1bfc ff       ???
1bfd ff       ???
1bfe ff       ???
1bff ff       ???
1c00 ff       ???
1c01 ff       ???
1c02 ff       ???
1c03 ff       ???
1c04 ff       ???
1c05 ff       ???
1c06 ff       ???
1c07 ff       ???
1c08 ff       ???
1c09 ff       ???
1c0a ff       ???
1c0b ff       ???
1c0c ff       ???
1c0d ff       ???
1c0e ff       ???
1c0f ff       ???
1c10 ff       ???
1c11 ff       ???
1c12 ff       ???
1c13 ff       ???
1c14 ff       ???
1c15 ff       ???
1c16 ff       ???
1c17 ff       ???
1c18 ff       ???
1c19 ff       ???
1c1a ff       ???
1c1b ff       ???
1c1c ff       ???
1c1d ff       ???
1c1e ff       ???
1c1f ff       ???
1c20 ff       ???
1c21 ff       ???
1c22 ff       ???
1c23 ff       ???
1c24 ff       ???
1c25 ff       ???
1c26 ff       ???
1c27 ff       ???
1c28 ff       ???
1c29 ff       ???
1c2a ff       ???
1c2b ff       ???
1c2c ff       ???
1c2d ff       ???
1c2e ff       ???
1c2f ff       ???
1c30 ff       ???
1c31 ff       ???
1c32 ff       ???
1c33 ff       ???
1c34 ff       ???
1c35 ff       ???
1c36 ff       ???
1c37 ff       ???
1c38 ff       ???
1c39 ff       ???
1c3a ff       ???
1c3b ff       ???
1c3c ff       ???
1c3d ff       ???
1c3e ff       ???
1c3f ff       ???
1c40 ff       ???
1c41 ff       ???
1c42 ff       ???
1c43 ff       ???
1c44 ff       ???
1c45 ff       ???
1c46 ff       ???
1c47 ff       ???
1c48 ff       ???
1c49 ff       ???
1c4a ff       ???
1c4b ff       ???
1c4c ff       ???
1c4d ff       ???
1c4e ff       ???
1c4f ff       ???
1c50 ff       ???
1c51 ff       ???
1c52 ff       ???
1c53 ff       ???
1c54 ff       ???
1c55 ff       ???
1c56 ff       ???
1c57 ff       ???
1c58 ff       ???
1c59 ff       ???
1c5a ff       ???
1c5b ff       ???
1c5c ff       ???
1c5d ff       ???
1c5e ff       ???
1c5f ff       ???
1c60 ff       ???
1c61 ff       ???
1c62 ff       ???
1c63 ff       ???
1c64 ff       ???
1c65 ff       ???
1c66 ff       ???
1c67 ff       ???
1c68 ff       ???
1c69 ff       ???
1c6a ff       ???
1c6b ff       ???
1c6c ff       ???
1c6d ff       ???
1c6e ff       ???
1c6f ff       ???
1c70 ff       ???
1c71 ff       ???
1c72 ff       ???
1c73 ff       ???
1c74 ff       ???
1c75 ff       ???
1c76 ff       ???
1c77 ff       ???
1c78 ff       ???
1c79 ff       ???
1c7a ff       ???
1c7b ff       ???
1c7c ff       ???
1c7d ff       ???
1c7e ff       ???
1c7f ff       ???
1c80 ff       ???
1c81 ff       ???
1c82 ff       ???
1c83 ff       ???
1c84 ff       ???
1c85 ff       ???
1c86 ff       ???
1c87 ff       ???
1c88 ff       ???
1c89 ff       ???
1c8a ff       ???
1c8b ff       ???
1c8c ff       ???
1c8d ff       ???
1c8e ff       ???
1c8f ff       ???
1c90 ff       ???
1c91 ff       ???
1c92 ff       ???
1c93 ff       ???
1c94 ff       ???
1c95 ff       ???
1c96 ff       ???
1c97 ff       ???
1c98 ff       ???
1c99 ff       ???
1c9a ff       ???
1c9b ff       ???
1c9c ff       ???
1c9d ff       ???
1c9e ff       ???
1c9f ff       ???
1ca0 ff       ???
1ca1 ff       ???
1ca2 ff       ???
1ca3 ff       ???
1ca4 ff       ???
1ca5 ff       ???
1ca6 ff       ???
1ca7 ff       ???
1ca8 ff       ???
1ca9 ff       ???
1caa ff       ???
1cab ff       ???
1cac ff       ???
1cad ff       ???
1cae ff       ???
1caf ff       ???
1cb0 ff       ???
1cb1 ff       ???
1cb2 ff       ???
1cb3 ff       ???
1cb4 ff       ???
1cb5 ff       ???
1cb6 ff       ???
1cb7 ff       ???
1cb8 ff       ???
1cb9 ff       ???
1cba ff       ???
1cbb ff       ???
1cbc ff       ???
1cbd ff       ???
1cbe ff       ???
1cbf ff       ???
1cc0 ff       ???
1cc1 ff       ???
1cc2 ff       ???
1cc3 ff       ???
1cc4 ff       ???
1cc5 ff       ???
1cc6 ff       ???
1cc7 ff       ???
1cc8 ff       ???
1cc9 ff       ???
1cca ff       ???
1ccb ff       ???
1ccc ff       ???
1ccd ff       ???
1cce ff       ???
1ccf ff       ???
1cd0 ff       ???
1cd1 ff       ???
1cd2 ff       ???
1cd3 ff       ???
1cd4 ff       ???
1cd5 ff       ???
1cd6 ff       ???
1cd7 ff       ???
1cd8 ff       ???
1cd9 ff       ???
1cda ff       ???
1cdb ff       ???
1cdc ff       ???
1cdd ff       ???
1cde ff       ???
1cdf ff       ???
1ce0 ff       ???
1ce1 ff       ???
1ce2 ff       ???
1ce3 ff       ???
1ce4 ff       ???
1ce5 ff       ???
1ce6 ff       ???
1ce7 ff       ???
1ce8 ff       ???
1ce9 ff       ???
1cea ff       ???
1ceb ff       ???
1cec ff       ???
1ced ff       ???
1cee ff       ???
1cef ff       ???
1cf0 ff       ???
1cf1 ff       ???
1cf2 ff       ???
1cf3 ff       ???
1cf4 ff       ???
1cf5 ff       ???
1cf6 ff       ???
1cf7 ff       ???
1cf8 ff       ???
1cf9 ff       ???
1cfa ff       ???
1cfb ff       ???
1cfc ff       ???
1cfd ff       ???
1cfe ff       ???
1cff ff       ???
1d00 ff       ???
1d01 ff       ???
1d02 ff       ???
1d03 ff       ???
1d04 ff       ???
1d05 ff       ???
1d06 ff       ???
1d07 ff       ???
1d08 ff       ???
1d09 ff       ???
1d0a ff       ???
1d0b ff       ???
1d0c ff       ???
1d0d ff       ???
1d0e ff       ???
1d0f ff       ???
1d10 ff       ???
1d11 ff       ???
1d12 ff       ???
1d13 ff       ???
1d14 ff       ???
1d15 ff       ???
1d16 ff       ???
1d17 ff       ???
1d18 ff       ???
1d19 ff       ???
1d1a ff       ???
1d1b ff       ???
1d1c ff       ???
1d1d ff       ???
1d1e ff       ???
1d1f ff       ???
1d20 ff       ???
1d21 ff       ???
1d22 ff       ???
1d23 ff       ???
1d24 ff       ???
1d25 ff       ???
1d26 ff       ???
1d27 ff       ???
1d28 ff       ???
1d29 ff       ???
1d2a ff       ???
1d2b ff       ???
1d2c ff       ???
1d2d ff       ???
1d2e ff       ???
1d2f ff       ???
1d30 ff       ???
1d31 ff       ???
1d32 ff       ???
1d33 ff       ???
1d34 ff       ???
1d35 ff       ???
1d36 ff       ???
1d37 ff       ???
1d38 ff       ???
1d39 ff       ???
1d3a ff       ???
1d3b ff       ???
1d3c ff       ???
1d3d ff       ???
1d3e ff       ???
1d3f ff       ???
1d40 ff       ???
1d41 ff       ???
1d42 ff       ???
1d43 ff       ???
1d44 ff       ???
1d45 ff       ???
1d46 ff       ???
1d47 ff       ???
1d48 ff       ???
1d49 ff       ???
1d4a ff       ???
1d4b ff       ???
1d4c ff       ???
1d4d ff       ???
1d4e ff       ???
1d4f ff       ???
1d50 ff       ???
1d51 ff       ???
1d52 ff       ???
1d53 ff       ???
1d54 ff       ???
1d55 ff       ???
1d56 ff       ???
1d57 ff       ???
1d58 ff       ???
1d59 ff       ???
1d5a ff       ???
1d5b ff       ???
1d5c ff       ???
1d5d ff       ???
1d5e ff       ???
1d5f ff       ???
1d60 ff       ???
1d61 ff       ???
1d62 ff       ???
1d63 ff       ???
1d64 ff       ???
1d65 ff       ???
1d66 ff       ???
1d67 ff       ???
1d68 ff       ???
1d69 ff       ???
1d6a ff       ???
1d6b ff       ???
1d6c ff       ???
1d6d ff       ???
1d6e ff       ???
1d6f ff       ???
1d70 ff       ???
1d71 ff       ???
1d72 ff       ???
1d73 ff       ???
1d74 ff       ???
1d75 ff       ???
1d76 ff       ???
1d77 ff       ???
1d78 ff       ???
1d79 ff       ???
1d7a ff       ???
1d7b ff       ???
1d7c ff       ???
1d7d ff       ???
1d7e ff       ???
1d7f ff       ???
1d80 ff       ???
1d81 ff       ???
1d82 ff       ???
1d83 ff       ???
1d84 ff       ???
1d85 ff       ???
1d86 ff       ???
1d87 ff       ???
1d88 ff       ???
1d89 ff       ???
1d8a ff       ???
1d8b ff       ???
1d8c ff       ???
1d8d ff       ???
1d8e ff       ???
1d8f ff       ???
1d90 ff       ???
1d91 ff       ???
1d92 ff       ???
1d93 ff       ???
1d94 ff       ???
1d95 ff       ???
1d96 ff       ???
1d97 ff       ???
1d98 ff       ???
1d99 ff       ???
1d9a ff       ???
1d9b ff       ???
1d9c ff       ???
1d9d ff       ???
1d9e ff       ???
1d9f ff       ???
1da0 ff       ???
1da1 ff       ???
1da2 ff       ???
1da3 ff       ???
1da4 ff       ???
1da5 ff       ???
1da6 ff       ???
1da7 ff       ???
1da8 ff       ???
1da9 ff       ???
1daa ff       ???
1dab ff       ???
1dac ff       ???
1dad ff       ???
1dae ff       ???
1daf ff       ???
1db0 ff       ???
1db1 ff       ???
1db2 ff       ???
1db3 ff       ???
1db4 ff       ???
1db5 ff       ???
1db6 ff       ???
1db7 ff       ???
1db8 ff       ???
1db9 ff       ???
1dba ff       ???
1dbb ff       ???
1dbc ff       ???
1dbd ff       ???
1dbe ff       ???
1dbf ff       ???
1dc0 ff       ???
1dc1 ff       ???
1dc2 ff       ???
1dc3 ff       ???
1dc4 ff       ???
1dc5 ff       ???
1dc6 ff       ???
1dc7 ff       ???
1dc8 ff       ???
1dc9 ff       ???
1dca ff       ???
1dcb ff       ???
1dcc ff       ???
1dcd ff       ???
1dce ff       ???
1dcf ff       ???
1dd0 ff       ???
1dd1 ff       ???
1dd2 ff       ???
1dd3 ff       ???
1dd4 ff       ???
1dd5 ff       ???
1dd6 ff       ???
1dd7 ff       ???
1dd8 ff       ???
1dd9 ff       ???
1dda ff       ???
1ddb ff       ???
1ddc ff       ???
1ddd ff       ???
1dde ff       ???
1ddf ff       ???
1de0 ff       ???
1de1 ff       ???
1de2 ff       ???
1de3 ff       ???
1de4 ff       ???
1de5 ff       ???
1de6 ff       ???
1de7 ff       ???
1de8 ff       ???
1de9 ff       ???
1dea ff       ???
1deb ff       ???
1dec ff       ???
1ded ff       ???
1dee ff       ???
1def ff       ???
1df0 ff       ???
1df1 ff       ???
1df2 ff       ???
1df3 ff       ???
1df4 ff       ???
1df5 ff       ???
1df6 ff       ???
1df7 ff       ???
1df8 ff       ???
1df9 ff       ???
1dfa ff       ???
1dfb ff       ???
1dfc ff       ???
1dfd ff       ???
1dfe ff       ???
1dff ff       ???
1e00 ff       ???
1e01 ff       ???
1e02 ff       ???
1e03 ff       ???
1e04 ff       ???
1e05 ff       ???
1e06 ff       ???
1e07 ff       ???
1e08 ff       ???
1e09 ff       ???
1e0a ff       ???
1e0b ff       ???
1e0c ff       ???
1e0d ff       ???
1e0e ff       ???
1e0f ff       ???
1e10 ff       ???
1e11 ff       ???
1e12 ff       ???
1e13 ff       ???
1e14 ff       ???
1e15 ff       ???
1e16 ff       ???
1e17 ff       ???
1e18 ff       ???
1e19 ff       ???
1e1a ff       ???
1e1b ff       ???
1e1c ff       ???
1e1d ff       ???
1e1e ff       ???
1e1f ff       ???
1e20 ff       ???
1e21 ff       ???
1e22 ff       ???
1e23 ff       ???
1e24 ff       ???
1e25 ff       ???
1e26 ff       ???
1e27 ff       ???
1e28 ff       ???
1e29 ff       ???
1e2a ff       ???
1e2b ff       ???
1e2c ff       ???
1e2d ff       ???
1e2e ff       ???
1e2f ff       ???
1e30 ff       ???
1e31 ff       ???
1e32 ff       ???
1e33 ff       ???
1e34 ff       ???
1e35 ff       ???
1e36 ff       ???
1e37 ff       ???
1e38 ff       ???
1e39 ff       ???
1e3a ff       ???
1e3b ff       ???
1e3c ff       ???
1e3d ff       ???
1e3e ff       ???
1e3f ff       ???
1e40 ff       ???
1e41 ff       ???
1e42 ff       ???
1e43 ff       ???
1e44 ff       ???
1e45 ff       ???
1e46 ff       ???
1e47 ff       ???
1e48 ff       ???
1e49 ff       ???
1e4a ff       ???
1e4b ff       ???
1e4c ff       ???
1e4d ff       ???
1e4e ff       ???
1e4f ff       ???
1e50 ff       ???
1e51 ff       ???
1e52 ff       ???
1e53 ff       ???
1e54 ff       ???
1e55 ff       ???
1e56 ff       ???
1e57 ff       ???
1e58 ff       ???
1e59 ff       ???
1e5a ff       ???
1e5b ff       ???
1e5c ff       ???
1e5d ff       ???
1e5e ff       ???
1e5f ff       ???
1e60 ff       ???
1e61 ff       ???
1e62 ff       ???
1e63 ff       ???
1e64 ff       ???
1e65 ff       ???
1e66 ff       ???
1e67 ff       ???
1e68 ff       ???
1e69 ff       ???
1e6a ff       ???
1e6b ff       ???
1e6c ff       ???
1e6d ff       ???
1e6e ff       ???
1e6f ff       ???
1e70 ff       ???
1e71 ff       ???
1e72 ff       ???
1e73 ff       ???
1e74 ff       ???
1e75 ff       ???
1e76 ff       ???
1e77 ff       ???
1e78 ff       ???
1e79 ff       ???
1e7a ff       ???
1e7b ff       ???
1e7c ff       ???
1e7d ff       ???
1e7e ff       ???
1e7f ff       ???
1e80 ff       ???
1e81 ff       ???
1e82 ff       ???
1e83 ff       ???
1e84 ff       ???
1e85 ff       ???
1e86 ff       ???
1e87 ff       ???
1e88 ff       ???
1e89 ff       ???
1e8a ff       ???
1e8b ff       ???
1e8c ff       ???
1e8d ff       ???
1e8e ff       ???
1e8f ff       ???
1e90 ff       ???
1e91 ff       ???
1e92 ff       ???
1e93 ff       ???
1e94 ff       ???
1e95 ff       ???
1e96 ff       ???
1e97 ff       ???
1e98 ff       ???
1e99 ff       ???
1e9a ff       ???
1e9b ff       ???
1e9c ff       ???
1e9d ff       ???
1e9e ff       ???
1e9f ff       ???
1ea0 ff       ???
1ea1 ff       ???
1ea2 ff       ???
1ea3 ff       ???
1ea4 ff       ???
1ea5 ff       ???
1ea6 ff       ???
1ea7 ff       ???
1ea8 ff       ???
1ea9 ff       ???
1eaa ff       ???
1eab ff       ???
1eac ff       ???
1ead ff       ???
1eae ff       ???
1eaf ff       ???
1eb0 ff       ???
1eb1 ff       ???
1eb2 ff       ???
1eb3 ff       ???
1eb4 ff       ???
1eb5 ff       ???
1eb6 ff       ???
1eb7 ff       ???
1eb8 ff       ???
1eb9 ff       ???
1eba ff       ???
1ebb ff       ???
1ebc ff       ???
1ebd ff       ???
1ebe ff       ???
1ebf ff       ???
1ec0 ff       ???
1ec1 ff       ???
1ec2 ff       ???
1ec3 ff       ???
1ec4 ff       ???
1ec5 ff       ???
1ec6 ff       ???
1ec7 ff       ???
1ec8 ff       ???
1ec9 ff       ???
1eca ff       ???
1ecb ff       ???
1ecc ff       ???
1ecd ff       ???
1ece ff       ???
1ecf ff       ???
1ed0 ff       ???
1ed1 ff       ???
1ed2 ff       ???
1ed3 ff       ???
1ed4 ff       ???
1ed5 ff       ???
1ed6 ff       ???
1ed7 ff       ???
1ed8 ff       ???
1ed9 ff       ???
1eda ff       ???
1edb ff       ???
1edc ff       ???
1edd ff       ???
1ede ff       ???
1edf ff       ???
1ee0 ff       ???
1ee1 ff       ???
1ee2 ff       ???
1ee3 ff       ???
1ee4 ff       ???
1ee5 ff       ???
1ee6 ff       ???
1ee7 ff       ???
1ee8 ff       ???
1ee9 ff       ???
1eea ff       ???
1eeb ff       ???
1eec ff       ???
1eed ff       ???
1eee ff       ???
1eef ff       ???
1ef0 ff       ???
1ef1 ff       ???
1ef2 ff       ???
1ef3 ff       ???
1ef4 ff       ???
1ef5 ff       ???
1ef6 ff       ???
1ef7 ff       ???
1ef8 ff       ???
1ef9 ff       ???
1efa ff       ???
1efb ff       ???
1efc ff       ???
1efd ff       ???
1efe ff       ???
1eff ff       ???
1f00 ff       ???
1f01 ff       ???
1f02 ff       ???
1f03 ff       ???
1f04 ff       ???
1f05 ff       ???
1f06 ff       ???
1f07 ff       ???
1f08 ff       ???
1f09 ff       ???
1f0a ff       ???
1f0b ff       ???
1f0c ff       ???
1f0d ff       ???
1f0e ff       ???
1f0f ff       ???
1f10 ff       ???
1f11 ff       ???
1f12 ff       ???
1f13 ff       ???
1f14 ff       ???
1f15 ff       ???
1f16 ff       ???
1f17 ff       ???
1f18 ff       ???
1f19 ff       ???
1f1a ff       ???
1f1b ff       ???
1f1c ff       ???
1f1d ff       ???
1f1e ff       ???
1f1f ff       ???
1f20 ff       ???
1f21 ff       ???
1f22 ff       ???
1f23 ff       ???
1f24 ff       ???
1f25 ff       ???
1f26 ff       ???
1f27 ff       ???
1f28 ff       ???
1f29 ff       ???
1f2a ff       ???
1f2b ff       ???
1f2c ff       ???
1f2d ff       ???
1f2e ff       ???
1f2f ff       ???
1f30 ff       ???
1f31 ff       ???
1f32 ff       ???
1f33 ff       ???
1f34 ff       ???
1f35 ff       ???
1f36 ff       ???
1f37 ff       ???
1f38 ff       ???
1f39 ff       ???
1f3a ff       ???
1f3b ff       ???
1f3c ff       ???
1f3d ff       ???
1f3e ff       ???
1f3f ff       ???
1f40 ff       ???
1f41 ff       ???
1f42 ff       ???
1f43 ff       ???
1f44 ff       ???
1f45 ff       ???
1f46 ff       ???
1f47 ff       ???
1f48 ff       ???
1f49 ff       ???
1f4a ff       ???
1f4b ff       ???
1f4c ff       ???
1f4d ff       ???
1f4e ff       ???
1f4f ff       ???
1f50 ff       ???
1f51 ff       ???
1f52 ff       ???
1f53 ff       ???
1f54 ff       ???
1f55 ff       ???
1f56 ff       ???
1f57 ff       ???
1f58 ff       ???
1f59 ff       ???
1f5a ff       ???
1f5b ff       ???
1f5c ff       ???
1f5d ff       ???
1f5e ff       ???
1f5f ff       ???
1f60 ff       ???
1f61 ff       ???
1f62 ff       ???
1f63 ff       ???
1f64 ff       ???
1f65 ff       ???
1f66 ff       ???
1f67 ff       ???
1f68 ff       ???
1f69 ff       ???
1f6a ff       ???
1f6b ff       ???
1f6c ff       ???
1f6d ff       ???
1f6e ff       ???
1f6f ff       ???
1f70 ff       ???
1f71 ff       ???
1f72 ff       ???
1f73 ff       ???
1f74 ff       ???
1f75 ff       ???
1f76 ff       ???
1f77 ff       ???
1f78 ff       ???
1f79 ff       ???
1f7a ff       ???
1f7b ff       ???
1f7c ff       ???
1f7d ff       ???
1f7e ff       ???
1f7f ff       ???
1f80 ff       ???
1f81 ff       ???
1f82 ff       ???
1f83 ff       ???
1f84 ff       ???
1f85 ff       ???
1f86 ff       ???
1f87 ff       ???
1f88 ff       ???
1f89 ff       ???
1f8a ff       ???
1f8b ff       ???
1f8c ff       ???
1f8d ff       ???
1f8e ff       ???
1f8f ff       ???
1f90 ff       ???
1f91 ff       ???
1f92 ff       ???
1f93 ff       ???
1f94 ff       ???
1f95 ff       ???
1f96 ff       ???
1f97 ff       ???
1f98 ff       ???
1f99 ff       ???
1f9a ff       ???
1f9b ff       ???
1f9c ff       ???
1f9d ff       ???
1f9e ff       ???
1f9f ff       ???
1fa0 ff       ???
1fa1 ff       ???
1fa2 ff       ???
1fa3 ff       ???
1fa4 ff       ???
1fa5 ff       ???
1fa6 ff       ???
1fa7 ff       ???
1fa8 ff       ???
1fa9 ff       ???
1faa ff       ???
1fab ff       ???
1fac ff       ???
1fad ff       ???
1fae ff       ???
1faf ff       ???
1fb0 ff       ???
1fb1 ff       ???
1fb2 ff       ???
1fb3 ff       ???
1fb4 ff       ???
1fb5 ff       ???
1fb6 ff       ???
1fb7 ff       ???
1fb8 ff       ???
1fb9 ff       ???
1fba ff       ???
1fbb ff       ???
1fbc ff       ???
1fbd ff       ???
1fbe ff       ???
1fbf ff       ???
1fc0 ff       ???
1fc1 ff       ???
1fc2 ff       ???
1fc3 ff       ???
1fc4 ff       ???
1fc5 ff       ???
1fc6 ff       ???
1fc7 ff       ???
1fc8 ff       ???
1fc9 ff       ???
1fca ff       ???
1fcb ff       ???
1fcc ff       ???
1fcd ff       ???
1fce ff       ???
1fcf ff       ???
1fd0 ff       ???
1fd1 ff       ???
1fd2 ff       ???
1fd3 ff       ???
1fd4 ff       ???
1fd5 ff       ???
1fd6 ff       ???
1fd7 ff       ???
1fd8 ff       ???
1fd9 ff       ???
1fda ff       ???
1fdb ff       ???
1fdc ff       ???
1fdd ff       ???
1fde ff       ???
1fdf ff       ???
1fe0 ff       ???
1fe1 ff       ???
1fe2 ff       ???
1fe3 ff       ???
1fe4 ff       ???
1fe5 ff       ???
1fe6 ff       ???
1fe7 ff       ???
1fe8 ff       ???
1fe9 ff       ???
1fea ff       ???
1feb ff       ???
1fec ff       ???
1fed ff       ???
1fee ff       ???
1fef ff       ???
1ff0 ff       ???
1ff1 ff       ???
1ff2 ff       ???
1ff3 ff       ???
1ff4 ff       ???
1ff5 ff       ???
1ff6 ff       ???
1ff7 ff       ???
1ff8 ff       ???
1ff9 ff       ???
1ffa ff       ???
1ffb ff       ???
1ffc ff       ???
1ffd 4c 4b a3 jmp $a34b
2000 4c 10 aa jmp $aa10
2003 4c 24 a0 jmp $a024
2006 4c 13 a3 jmp $a313
2009 4c 17 a1 jmp $a117
200c 4c cc a7 jmp $a7cc
200f 4c 6e a9 jmp $a96e
2012 4c a2 a8 jmp $a8a2
2015 4c 61 a4 jmp $a461
2018 4c 5c a3 jmp $a35c
201b 4c 20 a4 jmp $a420
201e 4c 59 ad jmp $ad59
2021 8d 00 1c sta $1c00
2024 ad 00 60 lda $6000
2027 49 12    eor #$12
2029 d0 05    bne $2030
202b 8d 24 60 sta $6024
202e f0 1b    beq $204b
2030 a5 22    lda $22
2032 f0 2c    beq $2060
2034 a6 45    ldx $45
2036 e0 30    cpx #$30
2038 f0 21    beq $205b
203a 90 27    bcc $2063
203c cd 24 60 cmp $6024
203f d0 0a    bne $204b
2041 ad 0b 60 lda $600b
2044 c9 30    cmp #$30
2046 d0 03    bne $204b
2048 20 2b a1 jsr $a12b
204b ad 00 02 lda $0200
204e c9 58    cmp #$58
2050 d0 0e    bne $2060
2052 a5 45    lda $45
2054 c9 60    cmp #$60
2056 d0 08    bne $2060
2058 6c 21 60 jmp ($6021)
205b a9 00    lda #$00
205d 8d 24 60 sta $6024
2060 4c 5f f3 jmp $f35f
2063 cd 24 60 cmp $6024
2066 f0 03    beq $206b
2068 20 7f a0 jsr $a07f
206b a5 45    lda $45
206d c9 10    cmp #$10
206f 90 08    bcc $2079
2071 f0 03    beq $2076
2073 4c 57 a6 jmp $a657
2076 4c c8 a5 jmp $a5c8
2079 4c dc a4 jmp $a4dc
207c a6 43    ldx $43
207e 8e 07 60 stx $6007
2081 a9 c2    lda #$c2
2083 9d 0b 60 sta $600b,x
2086 ca       dex 
2087 d0 fa    bne $2083
2089 20 10 a4 jsr $a410
208c 20 20 a4 jsr $a420
208f a9 5a    lda #$5a
2091 8d 06 60 sta $6006
2094 20 5c a3 jsr $a35c
2097 f0 66    beq $20ff
2099 a8       tay 
209a a5 16    lda $16
209c 20 72 a7 jsr $a772
209f 20 46 a4 jsr $a446
20a2 a0 40    ldy #$40
20a4 50 fe    bvc $20a4
20a6 b8       clv 
20a7 af       ???
20a8 01 1c    ora ($1c,x)
20aa 29 07    and #$07
20ac 85 14    sta $14
20ae bd 00 b8 lda $b800,x
20b1 85 1b    sta $1b
20b3 50 fe    bvc $20b3
20b5 ad 01 1c lda $1c01
20b8 4a       lsr a
20b9 85 15    sta $15
20bb 29 60    and #$60
20bd 05 14    ora $14
20bf aa       tax 
20c0 bd 00 bd lda $bd00,x
20c3 05 1b    ora $1b
20c5 91 16    sta ($16),y
20c7 a6 15    ldx $15
20c9 bd 00 b9 lda $b900,x
20cc 85 1b    sta $1b
20ce b8       clv 
20cf ad 01 1c lda $1c01
20d2 91 8a    sta ($8a),y
20d4 6a       ror a
20d5 aa       tax 
20d6 50 fe    bvc $20d6
20d8 b8       clv 
20d9 ad 01 1c lda $1c01
20dc 91 88    sta ($88),y
20de bd 00 ba lda $ba00,x
20e1 05 1b    ora $1b
20e3 91 86    sta ($86),y
20e5 50 fe    bvc $20e5
20e7 b8       clv 
20e8 ad 01 1c lda $1c01
20eb 91 8c    sta ($8c),y
20ed 88       dey 
20ee 10 b4    bpl $20a4
20f0 a6 19    ldx $19
20f2 a9 01    lda #$01
20f4 9d 0c 60 sta $600c,x
20f7 ce 07 60 dec $6007
20fa f0 03    beq $20ff
20fc 4c 92 a0 jmp $a092
20ff a5 22    lda $22
2101 8d 24 60 sta $6024
2104 a2 07    ldx #$07
2106 bd 25 60 lda $6025,x
2109 95 14    sta $14,x
210b bd 2d 60 lda $602d,x
210e 95 86    sta $86,x
2110 ca       dex 
2111 10 f3    bpl $2106
2113 60       rts 
2114 ad 0b 60 lda $600b
2117 c9 30    cmp #$30
2119 d0 05    bne $2120
211b 84 3f    sty $3f
211d 20 2b a1 jsr $a12b
2120 a4 41    ldy $41
2122 20 95 f3 jsr $f395
2125 4c 0f f3 jmp $f30f
2128 ad 00 1c lda $1c00
212b 29 10    and #$10
212d d0 03    bne $2132
212f 4c 81 f5 jmp $f581
2132 20 10 a4 jsr $a410
2135 20 20 a4 jsr $a420
2138 a9 05    lda #$05
213a 8d 08 60 sta $6008
213d a9 00    lda #$00
213f 8d 07 60 sta $6007
2142 20 fb a3 jsr $a3fb
2145 a9 5a    lda #$5a
2147 8d 06 60 sta $6006
214a ce 07 60 dec $6007
214d 10 03    bpl $2152
214f 4c 4c a2 jmp $a24c
2152 20 5c a3 jsr $a35c
2155 d0 05    bne $215c
2157 a9 02    lda #$02
2159 4c c0 a5 jmp $a5c0
215c 50 fe    bvc $215c
215e b8       clv 
215f e6 17    inc $17
2161 a0 01    ldy #$01
2163 b1 16    lda ($16),y
2165 85 15    sta $15
2167 88       dey 
2168 50 fe    bvc $2168
216a b8       clv 
216b b1 16    lda ($16),y
216d 85 14    sta $14
216f c6 17    dec $17
2171 a2 05    ldx #$05
2173 a5 16    lda $16
2175 a4 17    ldy $17
2177 50 fe    bvc $2177
2179 18       clc 
217a 69 40    adc #$40
217c b8       clv 
217d 90 01    bcc $2180
217f c8       iny 
2180 94 86    sty $86,x
2182 ca       dex 
2183 95 86    sta $86,x
2185 ca       dex 
2186 10 ef    bpl $2177
2188 50 fe    bvc $2188
218a b8       clv 
218b 50 fe    bvc $218b
218d b8       clv 
218e a9 ff    lda #$ff
2190 8d 03 1c sta $1c03
2193 ad 0c 1c lda $1c0c
2196 29 1f    and #$1f
2198 09 c0    ora #$c0
219a 8d 0c 1c sta $1c0c
219d a9 ff    lda #$ff
219f a2 05    ldx #$05
21a1 8d 01 1c sta $1c01
21a4 b8       clv 
21a5 50 fe    bvc $21a5
21a7 b8       clv 
21a8 ca       dex 
21a9 d0 fa    bne $21a5
21ab a0 3f    ldy #$3f
21ad b3       ???
21ae 16 bd    asl $bd,x
21b0 00       brk 
21b1 b0 50    bcs $2203
21b3 fe b8 8d inc $8db8,x
21b6 01 1c    ora ($1c,x)
21b8 bd 00 b1 lda $b100,x
21bb 85 1b    sta $1b
21bd b3       ???
21be 86 bd    stx $bd
21c0 00       brk 
21c1 b2       ???
21c2 05 1b    ora $1b
21c4 50 fe    bvc $21c4
21c6 8d 01 1c sta $1c01
21c9 b8       clv 
21ca bd 00 b3 lda $b300,x
21cd 85 1b    sta $1b
21cf b3       ???
21d0 88       dey 
21d1 a5 1b    lda $1b
21d3 1d 00 b4 ora $b400,x
21d6 50 fe    bvc $21d6
21d8 8d 01 1c sta $1c01
21db b8       clv 
21dc bd 00 b5 lda $b500,x
21df 85 1b    sta $1b
21e1 b3       ???
21e2 8a       txa 
21e3 a5 1b    lda $1b
21e5 1d 00 b6 ora $b600,x
21e8 50 fe    bvc $21e8
21ea 8d 01 1c sta $1c01
21ed b8       clv 
21ee bd 00 b7 lda $b700,x
21f1 50 fe    bvc $21f1
21f3 b8       clv 
21f4 8d 01 1c sta $1c01
21f7 88       dey 
21f8 10 b3    bpl $21ad
21fa a6 14    ldx $14
21fc bd 00 b0 lda $b000,x
21ff 50 fe    bvc $21ff
2201 b8       clv 
2202 8d 01 1c sta $1c01
2205 bd 00 b1 lda $b100,x
2208 a6 15    ldx $15
220a 1d 00 b2 ora $b200,x
220d 50 fe    bvc $220d
220f b8       clv 
2210 8d 01 1c sta $1c01
2213 bd 00 b3 lda $b300,x
2216 1d 00 b4 ora $b400,x
2219 50 fe    bvc $2219
221b b8       clv 
221c 8d 01 1c sta $1c01
221f 50 fe    bvc $221f
2221 b8       clv 
2222 50 fe    bvc $2222
2224 b8       clv 
2225 20 00 fe jsr $fe00
2228 a6 19    ldx $19
222a ad 02 60 lda $6002
222d c9 12    cmp #$12
222f d0 03    bne $2234
2231 a9 20    lda #$20
2233 2c a9 30 bit $30a9
2236 9d 0c 60 sta $600c,x
2239 4c 48 a1 jmp $a148
223c ce 08 60 dec $6008
223f f0 03    beq $2244
2241 4c 40 a1 jmp $a140
2244 a9 07    lda #$07
2246 4c c0 a5 jmp $a5c0
2249 a9 00    lda #$00
224b 8d 07 60 sta $6007
224e 20 fb a3 jsr $a3fb
2251 a9 5a    lda #$5a
2253 8d 06 60 sta $6006
2256 ce 07 60 dec $6007
2259 10 08    bpl $2263
225b a9 00    lda #$00
225d 8d 0b 60 sta $600b
2260 4c 07 a1 jmp $a107
2263 20 5c a3 jsr $a35c
2266 d0 05    bne $226d
2268 a9 02    lda #$02
226a 4c c0 a5 jmp $a5c0
226d e6 17    inc $17
226f a0 01    ldy #$01
2271 b1 16    lda ($16),y
2273 85 15    sta $15
2275 88       dey 
2276 b1 16    lda ($16),y
2278 85 14    sta $14
227a c6 17    dec $17
227c a5 16    lda $16
227e a4 17    ldy $17
2280 20 83 a7 jsr $a783
2283 20 46 a4 jsr $a446
2286 38       sec 
2287 a0 3f    ldy #$3f
2289 b3       ???
228a 16 bd    asl $bd,x
228c 00       brk 
228d b0 50    bcs $22df
228f fe ed 01 inc $01ed,x
2292 1c       ???
2293 d0 a7    bne $223c
2295 bd 00 b1 lda $b100,x
2298 85 1b    sta $1b
229a b3       ???
229b 86 bd    stx $bd
229d 00       brk 
229e b2       ???
229f 50 fe    bvc $229f
22a1 05 1b    ora $1b
22a3 ed 01 1c sbc $1c01
22a6 d0 94    bne $223c
22a8 bd 00 b3 lda $b300,x
22ab 85 1b    sta $1b
22ad b3       ???
22ae 88       dey 
22af a5 1b    lda $1b
22b1 50 fe    bvc $22b1
22b3 1d 00 b4 ora $b400,x
22b6 ed 01 1c sbc $1c01
22b9 d0 81    bne $223c
22bb bd 00 b5 lda $b500,x
22be 85 1b    sta $1b
22c0 b3       ???
22c1 8a       txa 
22c2 a5 1b    lda $1b
22c4 50 fe    bvc $22c4
22c6 1d 00 b6 ora $b600,x
22c9 ed 01 1c sbc $1c01
22cc d0 3f    bne $230d
22ce bd 00 b7 lda $b700,x
22d1 50 fe    bvc $22d1
22d3 ed 01 1c sbc $1c01
22d6 d0 35    bne $230d
22d8 88       dey 
22d9 10 ae    bpl $2289
22db a6 14    ldx $14
22dd bd 00 b0 lda $b000,x
22e0 50 fe    bvc $22e0
22e2 ed 01 1c sbc $1c01
22e5 d0 26    bne $230d
22e7 bd 00 b1 lda $b100,x
22ea a6 15    ldx $15
22ec 1d 00 b2 ora $b200,x
22ef 50 fe    bvc $22ef
22f1 ed 01 1c sbc $1c01
22f4 d0 17    bne $230d
22f6 bd 00 b3 lda $b300,x
22f9 1d 00 b4 ora $b400,x
22fc 50 fe    bvc $22fc
22fe ed 01 1c sbc $1c01
2301 d0 0a    bne $230d
2303 a6 19    ldx $19
2305 a9 20    lda #$20
2307 9d 0c 60 sta $600c,x
230a 4c 54 a2 jmp $a254
230d 4c 3f a2 jmp $a23f
2310 98       tya 
2311 29 10    and #$10
2313 f0 27    beq $233c
2315 a5 48    lda $48
2317 c9 f0    cmp #$f0
2319 d0 21    bne $233c
231b ad 0b 60 lda $600b
231e c9 30    cmp #$30
2320 d0 1a    bne $233c
2322 a9 00    lda #$00
2324 8d 0b 60 sta $600b
2327 6a       ror a
2328 8d 09 60 sta $6009
232b a5 1c    lda $1c
232d 4a       lsr a
232e b0 0c    bcs $233c
2330 a9 d7    lda #$d7
2332 85 48    sta $48
2334 20 2b a1 jsr $a12b
2337 a9 00    lda #$00
2339 8d 09 60 sta $6009
233c a4 20    ldy $20
233e c6 48    dec $48
2340 d0 03    bne $2345
2342 4c dd f9 jmp $f9dd
2345 4c fa f9 jmp $f9fa
2348 8d 0e 1c sta $1c0e
234b 20 10 ff jsr $ff10
234e a9 00    lda #$00
2350 8d 0b 60 sta $600b
2353 8d 09 60 sta $6009
2356 4c 8e f2 jmp $f28e
2359 20 46 a4 jsr $a446
235c 50 fe    bvc $235c
235e b8       clv 
235f ad 01 1c lda $1c01
2362 45 24    eor $24
2364 f0 06    beq $236c
2366 ce 06 60 dec $6006
2369 d0 ee    bne $2359
236b 60       rts 
236c 50 fe    bvc $236c
236e b8       clv 
236f ad 01 1c lda $1c01
2372 4a       lsr a
2373 aa       tax 
2374 29 60    and #$60
2376 45 25    eor $25
2378 d0 ec    bne $2366
237a bd 00 b9 lda $b900,x
237d 85 1a    sta $1a
237f 50 fe    bvc $237f
2381 b8       clv 
2382 ad 01 1c lda $1c01
2385 a8       tay 
2386 6a       ror a
2387 aa       tax 
2388 bd 00 ba lda $ba00,x
238b 05 1a    ora $1a
238d 85 1a    sta $1a
238f 50 fe    bvc $238f
2391 b8       clv 
2392 ad 01 1c lda $1c01
2395 0a       asl a
2396 aa       tax 
2397 29 06    and #$06
2399 45 27    eor $27
239b d0 c9    bne $2366
239d 50 fe    bvc $239d
239f b8       clv 
23a0 ad 01 1c lda $1c01
23a3 45 28    eor $28
23a5 d0 bf    bne $2366
23a7 bd 00 ba lda $ba00,x
23aa 85 19    sta $19
23ac 50 fe    bvc $23ac
23ae b8       clv 
23af ad 01 1c lda $1c01
23b2 45 29    eor $29
23b4 d0 b0    bne $2366
23b6 98       tya 
23b7 2a       rol a
23b8 aa       tax 
23b9 50 fe    bvc $23b9
23bb b8       clv 
23bc ad 01 1c lda $1c01
23bf 45 2a    eor $2a
23c1 d0 a3    bne $2366
23c3 bd 00 b9 lda $b900,x
23c6 05 19    ora $19
23c8 50 fe    bvc $23c8
23ca b8       clv 
23cb ac 01 1c ldy $1c01
23ce c4 2b    cpy $2b
23d0 d0 94    bne $2366
23d2 c5 43    cmp $43
23d4 b0 90    bcs $2366
23d6 aa       tax 
23d7 50 fe    bvc $23d7
23d9 b8       clv 
23da bc 0c 60 ldy $600c,x
23dd 10 87    bpl $2366
23df 45 18    eor $18
23e1 45 1a    eor $1a
23e3 d0 81    bne $2366
23e5 8a       txa 
23e6 0a       asl a
23e7 50 fe    bvc $23e7
23e9 b8       clv 
23ea a8       tay 
23eb b9 d0 bd lda $bdd0,y
23ee 85 16    sta $16
23f0 86 19    stx $19
23f2 b9 d1 bd lda $bdd1,y
23f5 85 17    sta $17
23f7 60       rts 
23f8 a6 43    ldx $43
23fa bd 0b 60 lda $600b,x
23fd 29 10    and #$10
23ff f0 08    beq $2409
2401 ee 07 60 inc $6007
2404 a9 b0    lda #$b0
2406 9d 0b 60 sta $600b,x
2409 ca       dex 
240a d0 ee    bne $23fa
240c 60       rts 
240d a2 07    ldx #$07
240f b5 14    lda $14,x
2411 9d 25 60 sta $6025,x
2414 b5 86    lda $86,x
2416 9d 2d 60 sta $602d,x
2419 ca       dex 
241a 10 f3    bpl $240f
241c 60       rts 
241d a5 12    lda $12
241f 85 16    sta $16
2421 a5 13    lda $13
2423 85 17    sta $17
2425 a5 22    lda $22
2427 85 18    sta $18
2429 20 34 f9 jsr $f934
242c a5 25    lda $25
242e 29 c0    and #$c0
2430 4a       lsr a
2431 85 25    sta $25
2433 a5 27    lda $27
2435 29 03    and #$03
2437 0a       asl a
2438 85 27    sta $27
243a a5 16    lda $16
243c 45 17    eor $17
243e 45 18    eor $18
2440 85 18    sta $18
2442 60       rts 
2443 a9 d0    lda #$d0
2445 8d 05 18 sta $1805
2448 2c 05 18 bit $1805
244b 10 0c    bpl $2459
244d 2c 00 1c bit $1c00
2450 30 f6    bmi $2448
2452 ad 01 1c lda $1c01
2455 b8       clv 
2456 a0 00    ldy #$00
2458 60       rts 
2459 a9 03    lda #$03
245b 4c c0 a5 jmp $a5c0
245e a6 43    ldx $43
2460 8e 07 60 stx $6007
2463 bd 0b 60 lda $600b,x
2466 09 80    ora #$80
2468 9d 0b 60 sta $600b,x
246b ca       dex 
246c d0 f5    bne $2463
246e 20 10 a4 jsr $a410
2471 20 20 a4 jsr $a420
2474 a9 86    lda #$86
2476 85 30    sta $30
2478 a9 00    lda #$00
247a 85 31    sta $31
247c a5 22    lda $22
247e 0a       asl a
247f aa       tax 
2480 bd 7e bd lda $bd7e,x
2483 85 8c    sta $8c
2485 bd 7f bd lda $bd7f,x
2488 85 8d    sta $8d
248a a9 c0    lda #$c0
248c 8d 06 60 sta $6006
248f 20 5c a3 jsr $a35c
2492 f0 40    beq $24d4
2494 84 16    sty $16
2496 20 46 a4 jsr $a446
2499 50 fe    bvc $2499
249b b8       clv 
249c ad 01 1c lda $1c01
249f 99 86 00 sta $0086,y
24a2 c8       iny 
24a3 c0 05    cpy #$05
24a5 d0 f2    bne $2499
24a7 a0 00    ldy #$00
24a9 20 e8 f7 jsr $f7e8
24ac a5 52    lda $52
24ae c5 47    cmp $47
24b0 d0 0b    bne $24bd
24b2 a4 16    ldy $16
24b4 a5 53    lda $53
24b6 91 8c    sta ($8c),y
24b8 c8       iny 
24b9 a5 54    lda $54
24bb 91 8c    sta ($8c),y
24bd a6 19    ldx $19
24bf bd 0c 60 lda $600c,x
24c2 29 7f    and #$7f
24c4 9d 0c 60 sta $600c,x
24c7 ce 07 60 dec $6007
24ca d0 be    bne $248a
24cc a6 22    ldx $22
24ce a9 01    lda #$01
24d0 9d d7 79 sta $79d7,x
24d3 2c a9 02 bit $02a9
24d6 4c c0 a5 jmp $a5c0
24d9 20 94 a7 jsr $a794
24dc f0 03    beq $24e1
24de 4c 5f f3 jmp $f35f
24e1 84 2e    sty $2e
24e3 84 36    sty $36
24e5 84 3a    sty $3a
24e7 a5 31    lda $31
24e9 85 2f    sta $2f
24eb bd d0 bd lda $bdd0,x
24ee 85 30    sta $30
24f0 bc d1 bd ldy $bdd1,x
24f3 84 31    sty $31
24f5 20 10 a4 jsr $a410
24f8 a6 19    ldx $19
24fa bd 0c 60 lda $600c,x
24fd 29 20    and #$20
24ff f0 4a    beq $254b
2501 a5 30    lda $30
2503 20 83 a7 jsr $a783
2506 a0 3f    ldy #$3f
2508 a2 00    ldx #$00
250a b1 30    lda ($30),y
250c 85 38    sta $38
250e 4c 1a a5 jmp $a51a
2511 b1 30    lda ($30),y
2513 81 2e    sta ($2e,x)
2515 e6 2e    inc $2e
2517 b1 86    lda ($86),y
2519 81 2e    sta ($2e,x)
251b e6 2e    inc $2e
251d b1 88    lda ($88),y
251f 81 2e    sta ($2e,x)
2521 e6 2e    inc $2e
2523 b1 8a    lda ($8a),y
2525 81 2e    sta ($2e,x)
2527 e6 2e    inc $2e
2529 88       dey 
252a 10 e5    bpl $2511
252c c8       iny 
252d e6 31    inc $31
252f b1 30    lda ($30),y
2531 81 2e    sta ($2e,x)
2533 c8       iny 
2534 b1 30    lda ($30),y
2536 85 3a    sta $3a
2538 a4 2f    ldy $2f
253a 84 31    sty $31
253c a0 00    ldy #$00
253e 84 30    sty $30
2540 a5 38    lda $38
2542 c5 47    cmp $47
2544 d0 98    bne $24de
2546 a9 01    lda #$01
2548 4c c0 a5 jmp $a5c0
254b a5 30    lda $30
254d 20 72 a7 jsr $a772
2550 a0 40    ldy #$40
2552 84 34    sty $34
2554 20 40 a7 jsr $a740
2557 a5 52    lda $52
2559 85 38    sta $38
255b a4 36    ldy $36
255d 4c 77 a5 jmp $a577
2560 84 36    sty $36
2562 c6 34    dec $34
2564 20 40 a7 jsr $a740
2567 a4 36    ldy $36
2569 a5 52    lda $52
256b 91 2e    sta ($2e),y
256d 45 3a    eor $3a
256f 85 3a    sta $3a
2571 c8       iny 
2572 f0 1d    beq $2591
2574 a5 53    lda $53
2576 91 2e    sta ($2e),y
2578 45 3a    eor $3a
257a 85 3a    sta $3a
257c c8       iny 
257d a5 54    lda $54
257f 91 2e    sta ($2e),y
2581 45 3a    eor $3a
2583 85 3a    sta $3a
2585 c8       iny 
2586 a5 55    lda $55
2588 91 2e    sta ($2e),y
258a 45 3a    eor $3a
258c 85 3a    sta $3a
258e c8       iny 
258f d0 cf    bne $2560
2591 a4 2f    ldy $2f
2593 84 31    sty $31
2595 a0 00    ldy #$00
2597 84 30    sty $30
2599 a5 53    lda $53
259b c5 3a    cmp $3a
259d 85 3a    sta $3a
259f d0 03    bne $25a4
25a1 a9 01    lda #$01
25a3 2c a9 45 bit $45a9
25a6 a6 47    ldx $47
25a8 e4 38    cpx $38
25aa f0 02    beq $25ae
25ac a9 44    lda #$44
25ae a6 19    ldx $19
25b0 9d 0c 60 sta $600c,x
25b3 c9 01    cmp #$01
25b5 f0 06    beq $25bd
25b7 20 07 a1 jsr $a107
25ba 4c 5f f3 jmp $f35f
25bd 48       pha 
25be 20 07 a1 jsr $a107
25c1 68       pla 
25c2 4c 69 f9 jmp $f969
25c5 ad 00 1c lda $1c00
25c8 29 10    and #$10
25ca d0 03    bne $25cf
25cc 4c 5f f3 jmp $f35f
25cf 20 94 a7 jsr $a794
25d2 d0 f8    bne $25cc
25d4 bd d0 bd lda $bdd0,x
25d7 85 2e    sta $2e
25d9 bc d1 bd ldy $bdd1,x
25dc 84 2f    sty $2f
25de 20 10 a4 jsr $a410
25e1 a5 2e    lda $2e
25e3 20 83 a7 jsr $a783
25e6 a0 3f    ldy #$3f
25e8 a2 00    ldx #$00
25ea 86 34    stx $34
25ec a5 47    lda $47
25ee 91 2e    sta ($2e),y
25f0 4c 00 a6 jmp $a600
25f3 a1 30    lda ($30,x)
25f5 91 2e    sta ($2e),y
25f7 45 34    eor $34
25f9 85 34    sta $34
25fb e6 30    inc $30
25fd a1 30    lda ($30,x)
25ff 91 86    sta ($86),y
2601 45 34    eor $34
2603 85 34    sta $34
2605 e6 30    inc $30
2607 a1 30    lda ($30,x)
2609 91 88    sta ($88),y
260b 45 34    eor $34
260d 85 34    sta $34
260f e6 30    inc $30
2611 a1 30    lda ($30,x)
2613 91 8a    sta ($8a),y
2615 45 34    eor $34
2617 85 34    sta $34
2619 e6 30    inc $30
261b 88       dey 
261c 10 d5    bpl $25f3
261e c8       iny 
261f e6 2f    inc $2f
2621 a1 30    lda ($30,x)
2623 91 2e    sta ($2e),y
2625 45 34    eor $34
2627 c8       iny 
2628 91 2e    sta ($2e),y
262a a4 2f    ldy $2f
262c 84 31    sty $31
262e a0 00    ldy #$00
2630 84 30    sty $30
2632 a6 19    ldx $19
2634 ad 24 60 lda $6024
2637 cd 85 fe cmp $fe85
263a f0 0d    beq $2649
263c a9 30    lda #$30
263e 9d 0c 60 sta $600c,x
2641 8d 0b 60 sta $600b
2644 a9 01    lda #$01
2646 4c c0 a5 jmp $a5c0
2649 a9 20    lda #$20
264b 9d 0c 60 sta $600c,x
264e 20 07 a1 jsr $a107
2651 4c 5f f3 jmp $f35f
2654 ad 24 60 lda $6024
2657 cd 85 fe cmp $fe85
265a f0 05    beq $2661
265c 20 94 a7 jsr $a794
265f f0 03    beq $2664
2661 4c 5f f3 jmp $f35f
2664 84 2e    sty $2e
2666 84 36    sty $36
2668 84 3a    sty $3a
266a a5 31    lda $31
266c 85 2f    sta $2f
266e bd d0 bd lda $bdd0,x
2671 85 30    sta $30
2673 bc d1 bd ldy $bdd1,x
2676 84 31    sty $31
2678 20 10 a4 jsr $a410
267b a6 19    ldx $19
267d bd 0c 60 lda $600c,x
2680 29 20    and #$20
2682 f0 53    beq $26d7
2684 a5 30    lda $30
2686 20 83 a7 jsr $a783
2689 a0 3f    ldy #$3f
268b a2 00    ldx #$00
268d b1 30    lda ($30),y
268f c5 38    cmp $38
2691 d0 41    bne $26d4
2693 4c a1 a6 jmp $a6a1
2696 b1 30    lda ($30),y
2698 c1 2e    cmp ($2e,x)
269a d0 38    bne $26d4
269c e6 2e    inc $2e
269e b1 86    lda ($86),y
26a0 c1 2e    cmp ($2e,x)
26a2 d0 30    bne $26d4
26a4 e6 2e    inc $2e
26a6 b1 88    lda ($88),y
26a8 c1 2e    cmp ($2e,x)
26aa d0 28    bne $26d4
26ac e6 2e    inc $2e
26ae b1 8a    lda ($8a),y
26b0 c1 2e    cmp ($2e,x)
26b2 d0 20    bne $26d4
26b4 e6 2e    inc $2e
26b6 88       dey 
26b7 10 dd    bpl $2696
26b9 c8       iny 
26ba e6 31    inc $31
26bc b1 30    lda ($30),y
26be c1 2e    cmp ($2e,x)
26c0 d0 12    bne $26d4
26c2 c8       iny 
26c3 a5 3a    lda $3a
26c5 d1 30    cmp ($30),y
26c7 d0 0b    bne $26d4
26c9 a4 2f    ldy $2f
26cb 84 31    sty $31
26cd a0 00    ldy #$00
26cf 84 30    sty $30
26d1 4c 38 a7 jmp $a738
26d4 4c 3b a7 jmp $a73b
26d7 a5 30    lda $30
26d9 20 72 a7 jsr $a772
26dc a0 40    ldy #$40
26de 84 34    sty $34
26e0 20 40 a7 jsr $a740
26e3 a5 52    lda $52
26e5 c5 47    cmp $47
26e7 d0 eb    bne $26d4
26e9 a4 36    ldy $36
26eb 4c 07 a7 jmp $a707
26ee 84 36    sty $36
26f0 c6 34    dec $34
26f2 20 40 a7 jsr $a740
26f5 a4 36    ldy $36
26f7 a5 52    lda $52
26f9 d1 2e    cmp ($2e),y
26fb d0 d7    bne $26d4
26fd 45 3a    eor $3a
26ff 85 3a    sta $3a
2701 c8       iny 
2702 f0 23    beq $2727
2704 a5 53    lda $53
2706 d1 2e    cmp ($2e),y
2708 d0 ca    bne $26d4
270a 45 3a    eor $3a
270c 85 3a    sta $3a
270e c8       iny 
270f a5 54    lda $54
2711 d1 2e    cmp ($2e),y
2713 d0 23    bne $2738
2715 45 3a    eor $3a
2717 85 3a    sta $3a
2719 c8       iny 
271a a5 55    lda $55
271c d1 2e    cmp ($2e),y
271e d0 18    bne $2738
2720 45 3a    eor $3a
2722 85 3a    sta $3a
2724 c8       iny 
2725 d0 c7    bne $26ee
2727 a4 2f    ldy $2f
2729 84 31    sty $31
272b a0 00    ldy #$00
272d 84 30    sty $30
272f a5 53    lda $53
2731 c5 3a    cmp $3a
2733 d0 03    bne $2738
2735 a9 01    lda #$01
2737 2c a9 07 bit $07a9
273a 4c c0 a5 jmp $a5c0
273d a4 34    ldy $34
273f b1 30    lda ($30),y
2741 85 52    sta $52
2743 b1 86    lda ($86),y
2745 85 53    sta $53
2747 b1 88    lda ($88),y
2749 0a       asl a
274a aa       tax 
274b 29 06    and #$06
274d 85 55    sta $55
274f bd 00 ba lda $ba00,x
2752 85 54    sta $54
2754 b1 8a    lda ($8a),y
2756 2a       rol a
2757 aa       tax 
2758 bd 00 b9 lda $b900,x
275b 05 54    ora $54
275d 85 54    sta $54
275f b3       ???
2760 8c 29 e0 sty $e029
2763 05 55    ora $55
2765 a8       tay 
2766 b9 00 bb lda $bb00,y
2769 1d 00 bc ora $bc00,x
276c 85 55    sta $55
276e 60       rts 
276f a2 07    ldx #$07
2771 18       clc 
2772 69 41    adc #$41
2774 90 01    bcc $2777
2776 c8       iny 
2777 94 86    sty $86,x
2779 ca       dex 
277a 95 86    sta $86,x
277c ca       dex 
277d 10 f2    bpl $2771
277f 60       rts 
2780 a2 05    ldx #$05
2782 18       clc 
2783 69 40    adc #$40
2785 90 01    bcc $2788
2787 c8       iny 
2788 94 86    sty $86,x
278a ca       dex 
278b 95 86    sta $86,x
278d ca       dex 
278e 10 f2    bpl $2782
2790 60       rts 
2791 a0 00    ldy #$00
2793 b1 32    lda ($32),y
2795 cd 24 60 cmp $6024
2798 d0 2e    bne $27c8
279a 85 18    sta $18
279c a5 12    lda $12
279e 85 16    sta $16
27a0 a5 13    lda $13
27a2 85 17    sta $17
27a4 c8       iny 
27a5 b1 32    lda ($32),y
27a7 85 19    sta $19
27a9 c5 43    cmp $43
27ab d0 02    bne $27af
27ad aa       tax 
27ae 60       rts 
27af b0 fd    bcs $27ae
27b1 aa       tax 
27b2 bd 0c 60 lda $600c,x
27b5 29 40    and #$40
27b7 d0 0f    bne $27c8
27b9 8a       txa 
27ba 0a       asl a
27bb aa       tax 
27bc a5 16    lda $16
27be 45 17    eor $17
27c0 45 18    eor $18
27c2 45 19    eor $19
27c4 85 1a    sta $1a
27c6 a0 00    ldy #$00
27c8 60       rts 
27c9 a9 00    lda #$00
27cb 8d 0a 60 sta $600a
27ce a5 79    lda $79
27d0 05 7a    ora $7a
27d2 f0 37    beq $280b
27d4 ad 03 60 lda $6003
27d7 49 12    eor #$12
27d9 f0 30    beq $280b
27db 2c 0d 18 bit $180d
27de a9 10    lda #$10
27e0 2c 00 18 bit $1800
27e3 10 2b    bpl $2810
27e5 2c 0d 18 bit $180d
27e8 f0 f6    beq $27e0
27ea a9 0b    lda #$0b
27ec 8d 0c 18 sta $180c
27ef 2c 00 18 bit $1800
27f2 2c 01 18 bit $1801
27f5 a9 80    lda #$80
27f7 8d 0a 60 sta $600a
27fa a9 01    lda #$01
27fc 8d 0c 18 sta $180c
27ff a9 00    lda #$00
2801 8d 03 18 sta $1803
2804 a5 79    lda $79
2806 d0 03    bne $280b
2808 ce 03 18 dec $1803
280b 2c 00 18 bit $1800
280e 30 fb    bmi $280b
2810 4c d7 e8 jmp $e8d7
2813 a9 04    lda #$04
2815 2c 00 18 bit $1800
2818 30 46    bmi $2860
281a d0 f9    bne $2815
281c ad 00 18 lda $1800
281f 29 fd    and #$fd
2821 8d 00 18 sta $1800
2824 a0 07    ldy #$07
2826 a9 04    lda #$04
2828 2c 00 18 bit $1800
282b 30 33    bmi $2860
282d d0 22    bne $2851
282f 88       dey 
2830 d0 f6    bne $2828
2832 ad 00 18 lda $1800
2835 09 02    ora #$02
2837 8d 00 18 sta $1800
283a a0 0a    ldy #$0a
283c 88       dey 
283d d0 fd    bne $283c
283f 29 fd    and #$fd
2841 8d 00 18 sta $1800
2844 a9 04    lda #$04
2846 2c 00 18 bit $1800
2849 30 15    bmi $2860
284b f0 f9    beq $2846
284d a9 00    lda #$00
284f 85 f8    sta $f8
2851 ac 01 18 ldy $1801
2854 ad 00 18 lda $1800
2857 09 02    ora #$02
2859 8d 00 18 sta $1800
285c 98       tya 
285d 85 85    sta $85
285f 60       rts 
2860 4c 5b e8 jmp $e85b
2863 ad 00 18 lda $1800
2866 29 f7    and #$f7
2868 8d 00 18 sta $1800
286b a9 01    lda #$01
286d 2c 00 18 bit $1800
2870 30 ee    bmi $2860
2872 d0 f9    bne $286d
2874 8a       txa 
2875 d0 10    bne $2887
2877 a9 01    lda #$01
2879 2c 00 18 bit $1800
287c 30 e2    bmi $2860
287e f0 f9    beq $2879
2880 2c 00 18 bit $1800
2883 30 db    bmi $2860
2885 d0 f9    bne $2880
2887 b9 3e 02 lda $023e,y
288a 8d 01 18 sta $1801
288d ad 00 18 lda $1800
2890 09 08    ora #$08
2892 8d 00 18 sta $1800
2895 a9 01    lda #$01
2897 2c 00 18 bit $1800
289a 30 c4    bmi $2860
289c f0 f9    beq $2897
289e 60       rts 
289f 2c 0a 60 bit $600a
28a2 10 73    bpl $2917
28a4 20 16 a8 jsr $a816
28a7 58       cli 
28a8 a5 84    lda $84
28aa 29 8f    and #$8f
28ac c9 0f    cmp #$0f
28ae b0 1b    bcs $28cb
28b0 20 25 d1 jsr $d125
28b3 b0 3c    bcs $28f1
28b5 20 26 a9 jsr $a926
28b8 4c c1 a8 jmp $a8c1
28bb 20 16 a8 jsr $a816
28be 81 99    sta ($99,x)
28c0 f6 99    inc $99,x
28c2 d0 f7    bne $28bb
28c4 58       cli 
28c5 20 a3 d1 jsr $d1a3
28c8 4c 2e ea jmp $ea2e
28cb a9 04    lda #$04
28cd 85 82    sta $82
28cf 20 e8 d4 jsr $d4e8
28d2 c9 2a    cmp #$2a
28d4 f0 14    beq $28ea
28d6 78       sei 
28d7 a5 85    lda $85
28d9 81 99    sta ($99,x)
28db f6 99    inc $99,x
28dd a5 f8    lda $f8
28df f0 09    beq $28ea
28e1 20 16 a8 jsr $a816
28e4 b4 99    ldy $99,x
28e6 c0 2a    cpy #$2a
28e8 d0 ef    bne $28d9
28ea 58       cli 
28eb 20 e8 cf jsr $cfe8
28ee 4c 2e ea jmp $ea2e
28f1 f0 2a    beq $291d
28f3 20 26 a9 jsr $a926
28f6 a4 82    ldy $82
28f8 4c 01 a9 jmp $a901
28fb 20 16 a8 jsr $a816
28fe 81 99    sta ($99,x)
2900 f6 99    inc $99,x
2902 a4 82    ldy $82
2904 a1 99    lda ($99,x)
2906 99 3e 02 sta $023e,y
2909 b5 99    lda $99,x
290b d9 44 02 cmp $0244,y
290e d0 eb    bne $28fb
2910 58       cli 
2911 20 fa d3 jsr $d3fa
2914 4c 2e ea jmp $ea2e
2917 20 c9 e9 jsr $e9c9
291a 4c 47 ea jmp $ea47
291d 20 ab e0 jsr $e0ab
2920 4c 2e ea jmp $ea2e
2923 20 93 df jsr $df93
2926 30 06    bmi $292e
2928 0a       asl a
2929 aa       tax 
292a a5 85    lda $85
292c 78       sei 
292d 60       rts 
292e 4c f8 cf jmp $cff8
2931 20 c0 d3 jsr $d3c0
2934 4c 95 e9 jmp $e995
2937 20 2f d1 jsr $d12f
293a b5 99    lda $99,x
293c d9 44 02 cmp $0244,y
293f 78       sei 
2940 d0 0c    bne $294e
2942 58       cli 
2943 20 e8 d3 jsr $d3e8
2946 4c 95 e9 jmp $e995
2949 e8       inx 
294a 20 66 a8 jsr $a866
294d ca       dex 
294e f6 99    inc $99,x
2950 a1 99    lda ($99,x)
2952 99 3e 02 sta $023e,y
2955 b5 99    lda $99,x
2957 d9 44 02 cmp $0244,y
295a d0 ed    bne $2949
295c 58       cli 
295d a9 81    lda #$81
295f 99 f2 00 sta $00f2,y
2962 4c 95 e9 jmp $e995
2965 20 00 d4 jsr $d400
2968 4c 95 e9 jmp $e995
296b b5 f2    lda $f2,x
296d 10 be    bpl $292d
296f 2c 0a 60 bit $600a
2972 10 56    bpl $29ca
2974 29 08    and #$08
2976 aa       tax 
2977 a4 82    ldy $82
2979 20 66 a8 jsr $a866
297c 58       cli 
297d a6 82    ldx $82
297f 20 25 d1 jsr $d125
2982 f0 49    beq $29cd
2984 a5 83    lda $83
2986 c9 0f    cmp #$0f
2988 f0 49    beq $29d3
298a b5 f2    lda $f2,x
298c 29 08    and #$08
298e f0 a1    beq $2931
2990 a5 83    lda $83
2992 f0 13    beq $29a7
2994 20 25 d1 jsr $d125
2997 c9 04    cmp #$04
2999 b0 9c    bcs $2937
299b 20 2f d1 jsr $d12f
299e b9 44 02 lda $0244,y
29a1 d0 c2    bne $2965
29a3 78       sei 
29a4 4c bd a9 jmp $a9bd
29a7 ad 54 02 lda $0254
29aa f0 ef    beq $299b
29ac 20 0e d4 jsr $d40e
29af 4c 95 e9 jmp $e995
29b2 99 3e 02 sta $023e,y
29b5 e8       inx 
29b6 20 66 a8 jsr $a866
29b9 ca       dex 
29ba a1 99    lda ($99,x)
29bc f6 99    inc $99,x
29be d0 f2    bne $29b2
29c0 58       cli 
29c1 20 59 d1 jsr $d159
29c4 20 03 d4 jsr $d403
29c7 4c 95 e9 jmp $e995
29ca 4c 16 e9 jmp $e916
29cd 20 20 e1 jsr $e120
29d0 4c 95 e9 jmp $e995
29d3 20 e8 d4 jsr $d4e8
29d6 c9 d4    cmp #$d4
29d8 d0 0c    bne $29e6
29da a5 95    lda $95
29dc c9 02    cmp #$02
29de d0 06    bne $29e6
29e0 20 21 d4 jsr $d421
29e3 4c 95 e9 jmp $e995
29e6 78       sei 
29e7 20 2f d1 jsr $d12f
29ea a9 88    lda #$88
29ec 85 f7    sta $f7
29ee 4c f7 a9 jmp $a9f7
29f1 20 66 a8 jsr $a866
29f4 a1 99    lda ($99,x)
29f6 99 3e 02 sta $023e,y
29f9 b5 99    lda $99,x
29fb d9 44 02 cmp $0244,y
29fe f0 06    beq $2a06
2a00 f6 99    inc $99,x
2a02 d0 ed    bne $29f1
2a04 d6 99    dec $99,x
2a06 58       cli 
2a07 20 14 d4 jsr $d414
2a0a 4c 95 e9 jmp $e995
2a0d ad 74 02 lda $0274
2a10 c9 01    cmp #$01
2a12 f0 42    beq $2a56
2a14 ad 01 02 lda $0201
2a17 c9 2b    cmp #$2b
2a19 d0 0f    bne $2a2a
2a1b a9 00    lda #$00
2a1d a2 05    ldx #$05
2a1f 9d ff 5f sta $5fff,x
2a22 ca       dex 
2a23 d0 fa    bne $2a1f
2a25 e8       inx 
2a26 86 1c    stx $1c
2a28 d0 2c    bne $2a56
2a2a c9 51    cmp #$51
2a2c d0 03    bne $2a31
2a2e 4c 6a ab jmp $ab6a
2a31 c9 5a    cmp #$5a
2a33 d0 03    bne $2a38
2a35 4c 94 ad jmp $ad94
2a38 c9 56    cmp #$56
2a3a d0 04    bne $2a40
2a3c a9 02    lda #$02
2a3e d0 06    bne $2a46
2a40 c9 52    cmp #$52
2a42 d0 6a    bne $2aae
2a44 a9 00    lda #$00
2a46 8d 00 02 sta $0200
2a49 a9 00    lda #$00
2a4b a2 12    ldx #$12
2a4d 20 46 ad jsr $ad46
2a50 ac 00 02 ldy $0200
2a53 99 00 60 sta $6000,y
2a56 ad 04 60 lda $6004
2a59 c9 12    cmp #$12
2a5b f0 08    beq $2a65
2a5d a2 00    ldx #$00
2a5f a5 1c    lda $1c
2a61 05 ff    ora $ff
2a63 d0 04    bne $2a69
2a65 ae 23 60 ldx $6023
2a68 ca       dex 
2a69 86 80    stx $80
2a6b a5 77    lda $77
2a6d 29 0f    and #$0f
2a6f 85 81    sta $81
2a71 a9 32    lda #$32
2a73 20 c7 e6 jsr $e6c7
2a76 a2 00    ldx #$00
2a78 a0 01    ldy #$01
2a7a a9 30    lda #$30
2a7c 8d 43 02 sta $0243
2a7f c8       iny 
2a80 bd ad aa lda $aaad,x
2a83 91 a5    sta ($a5),y
2a85 c8       iny 
2a86 bd 00 60 lda $6000,x
2a89 c9 12    cmp #$12
2a8b f0 03    beq $2a90
2a8d a9 2b    lda #$2b
2a8f 2c a9 2d bit $2da9
2a92 91 a5    sta ($a5),y
2a94 c8       iny 
2a95 a9 3a    lda #$3a
2a97 91 a5    sta ($a5),y
2a99 e8       inx 
2a9a e0 04    cpx #$04
2a9c d0 e1    bne $2a7f
2a9e ad 04 60 lda $6004
2aa1 c9 12    cmp #$12
2aa3 d0 04    bne $2aa9
2aa5 a9 21    lda #$21
2aa7 91 a5    sta ($a5),y
2aa9 60       rts 
2aaa 52       ???
2aab 46 56    lsr $56
2aad 50 c9    bvc $2a78
2aaf 46 d0    lsr $d0
2ab1 04       ???
2ab2 a9 01    lda #$01
2ab4 d0 90    bne $2a46
2ab6 c9 50    cmp #$50
2ab8 d0 04    bne $2abe
2aba a9 03    lda #$03
2abc d0 88    bne $2a46
2abe c9 54    cmp #$54
2ac0 d0 21    bne $2ae3
2ac2 ad 74 02 lda $0274
2ac5 49 02    eor #$02
2ac7 f0 10    beq $2ad9
2ac9 a9 29    lda #$29
2acb ae 02 02 ldx $0202
2ace e0 2d    cpx #$2d
2ad0 d0 02    bne $2ad4
2ad2 a9 24    lda #$24
2ad4 8d 23 60 sta $6023
2ad7 a9 12    lda #$12
2ad9 8d 04 60 sta $6004
2adc a9 01    lda #$01
2ade 85 1c    sta $1c
2ae0 4c 59 aa jmp $aa59
2ae3 c9 2d    cmp #$2d
2ae5 d0 0a    bne $2af1
2ae7 a9 12    lda #$12
2ae9 8d 00 60 sta $6000
2aec 8d 03 60 sta $6003
2aef d0 e1    bne $2ad2
2af1 c9 4c    cmp #$4c
2af3 d0 0b    bne $2b00
2af5 a9 0a    lda #$0a
2af7 8d 2a 02 sta $022a
2afa 20 ee c1 jsr $c1ee
2afd 4c 23 c8 jmp $c823
2b00 c9 55    cmp #$55
2b02 f0 f1    beq $2af5
2b04 c9 3a    cmp #$3a
2b06 b0 10    bcs $2b18
2b08 c9 34    cmp #$34
2b0a 90 0c    bcc $2b18
2b0c e9 30    sbc #$30
2b0e 09 40    ora #$40
2b10 85 78    sta $78
2b12 49 60    eor #$60
2b14 85 77    sta $77
2b16 d0 c8    bne $2ae0
2b18 c9 31    cmp #$31
2b1a d0 10    bne $2b2c
2b1c ad 02 02 lda $0202
2b1f c9 30    cmp #$30
2b21 90 41    bcc $2b64
2b23 c9 35    cmp #$35
2b25 b0 3d    bcs $2b64
2b27 69 0a    adc #$0a
2b29 38       sec 
2b2a b0 e0    bcs $2b0c
2b2c c9 28    cmp #$28
2b2e d0 34    bne $2b64
2b30 ad 02 02 lda $0202
2b33 c9 43    cmp #$43
2b35 d0 2d    bne $2b64
2b37 ad 03 02 lda $0203
2b3a c9 29    cmp #$29
2b3c d0 26    bne $2b64
2b3e a9 d6    lda #$d6
2b40 49 c5    eor #$c5
2b42 85 80    sta $80
2b44 a9 90    lda #$90
2b46 49 c6    eor #$c6
2b48 85 81    sta $81
2b4a a9 66    lda #$66
2b4c 20 c7 e6 jsr $e6c7
2b4f a9 30    lda #$30
2b51 8d 43 02 sta $0243
2b54 a0 02    ldy #$02
2b56 b9 fe b6 lda $b6fe,y
2b59 59 fe b7 eor $b7fe,y
2b5c 91 a5    sta ($a5),y
2b5e c8       iny 
2b5f c0 19    cpy #$19
2b61 d0 f3    bne $2b56
2b63 60       rts 
2b64 4c c1 c8 jmp $c8c1
2b67 78       sei 
2b68 a9 ff    lda #$ff
2b6a 8d 03 18 sta $1803
2b6d 20 ae e9 jsr $e9ae
2b70 a9 01    lda #$01
2b72 85 7a    sta $7a
2b74 4a       lsr a
2b75 85 85    sta $85
2b77 85 83    sta $83
2b79 20 30 ad jsr $ad30
2b7c aa       tax 
2b7d a0 02    ldy #$02
2b7f 88       dey 
2b80 30 0f    bmi $2b91
2b82 b9 00 60 lda $6000,y
2b85 c9 12    cmp #$12
2b87 d0 f6    bne $2b7f
2b89 a9 80    lda #$80
2b8b 8d 0a 60 sta $600a
2b8e 4c 0f e9 jmp $e90f
2b91 a9 0b    lda #$0b
2b93 8d 0c 18 sta $180c
2b96 2c 0d 18 bit $180d
2b99 2c 00 18 bit $1800
2b9c 2c 01 18 bit $1801
2b9f a9 f6    lda #$f6
2ba1 8d 21 60 sta $6021
2ba4 a9 ab    lda #$ab
2ba6 8d 22 60 sta $6022
2ba9 58       cli 
2baa 20 4f ad jsr $ad4f
2bad d0 14    bne $2bc3
2baf 24 85    bit $85
2bb1 10 26    bpl $2bd9
2bb3 8a       txa 
2bb4 20 54 d5 jsr $d554
2bb7 24 85    bit $85
2bb9 70 03    bvs $2bbe
2bbb a9 66    lda #$66
2bbd 2c a9 23 bit $23a9
2bc0 4c 45 e6 jmp $e645
2bc3 8a       txa 
2bc4 0a       asl a
2bc5 aa       tax 
2bc6 a9 01    lda #$01
2bc8 95 99    sta $99,x
2bca a1 99    lda ($99,x)
2bcc a8       tay 
2bcd f6 99    inc $99,x
2bcf a1 99    lda ($99,x)
2bd1 20 0d ad jsr $ad0d
2bd4 98       tya 
2bd5 d5 99    cmp $99,x
2bd7 d0 f4    bne $2bcd
2bd9 20 b7 e9 jsr $e9b7
2bdc a9 01    lda #$01
2bde 2c 00 18 bit $1800
2be1 d0 fb    bne $2bde
2be3 2c 01 18 bit $1801
2be6 a9 00    lda #$00
2be8 8d 03 18 sta $1803
2beb 85 83    sta $83
2bed 20 c0 da jsr $dac0
2bf0 4c 94 c1 jmp $c194
2bf3 a5 31    lda $31
2bf5 85 2f    sta $2f
2bf7 ad 24 60 lda $6024
2bfa c5 22    cmp $22
2bfc f0 03    beq $2c01
2bfe 20 7f a0 jsr $a07f
2c01 a0 01    ldy #$01
2c03 b1 32    lda ($32),y
2c05 c5 43    cmp $43
2c07 b0 4d    bcs $2c56
2c09 a8       tay 
2c0a 0a       asl a
2c0b aa       tax 
2c0c b9 0c 60 lda $600c,y
2c0f 10 0a    bpl $2c1b
2c11 29 0f    and #$0f
2c13 a2 00    ldx #$00
2c15 8e 24 60 stx $6024
2c18 4c c0 a5 jmp $a5c0
2c1b 29 20    and #$20
2c1d d0 df    bne $2bfe
2c1f bd d0 bd lda $bdd0,x
2c22 85 30    sta $30
2c24 bc d1 bd ldy $bdd1,x
2c27 84 31    sty $31
2c29 20 72 a7 jsr $a772
2c2c a0 40    ldy #$40
2c2e 84 34    sty $34
2c30 20 40 a7 jsr $a740
2c33 a5 52    lda $52
2c35 c5 47    cmp $47
2c37 f0 2f    beq $2c68
2c39 a9 04    lda #$04
2c3b d0 d6    bne $2c13
2c3d 20 13 ad jsr $ad13
2c40 b1 86    lda ($86),y
2c42 45 3a    eor $3a
2c44 d0 0d    bne $2c53
2c46 b1 32    lda ($32),y
2c48 cd 24 60 cmp $6024
2c4b f0 b4    beq $2c01
2c4d 20 07 a1 jsr $a107
2c50 4c e0 ff jmp $ffe0
2c53 a2 c0    ldx #$c0
2c55 2c a2 80 bit $80a2
2c58 86 85    stx $85
2c5a a9 00    lda #$00
2c5c 4c c0 a5 jmp $a5c0
2c5f a6 3f    ldx $3f
2c61 a9 80    lda #$80
2c63 9d 5b 02 sta $025b,x
2c66 d0 f4    bne $2c5c
2c68 a0 00    ldy #$00
2c6a a5 53    lda $53
2c6c f0 f1    beq $2c5f
2c6e 91 32    sta ($32),y
2c70 cd 23 60 cmp $6023
2c73 b0 e1    bcs $2c56
2c75 45 54    eor $54
2c77 85 3a    sta $3a
2c79 c8       iny 
2c7a a5 54    lda $54
2c7c 91 32    sta ($32),y
2c7e a5 55    lda $55
2c80 aa       tax 
2c81 45 3a    eor $3a
2c83 85 3a    sta $3a
2c85 ad 00 18 lda $1800
2c88 8e 01 18 stx $1801
2c8b 4a       lsr a
2c8c 90 cc    bcc $2c5a
2c8e a4 34    ldy $34
2c90 88       dey 
2c91 20 13 ad jsr $ad13
2c94 b1 30    lda ($30),y
2c96 2c 00 18 bit $1800
2c99 8d 01 18 sta $1801
2c9c 45 3a    eor $3a
2c9e 85 3a    sta $3a
2ca0 98       tya 
2ca1 f0 9a    beq $2c3d
2ca3 a9 10    lda #$10
2ca5 2c 0d 18 bit $180d
2ca8 f0 fb    beq $2ca5
2caa b1 86    lda ($86),y
2cac 2c 00 18 bit $1800
2caf 8d 01 18 sta $1801
2cb2 45 3a    eor $3a
2cb4 85 3a    sta $3a
2cb6 b1 88    lda ($88),y
2cb8 0a       asl a
2cb9 aa       tax 
2cba 29 06    and #$06
2cbc 85 53    sta $53
2cbe bd 00 ba lda $ba00,x
2cc1 85 54    sta $54
2cc3 b1 8a    lda ($8a),y
2cc5 2a       rol a
2cc6 aa       tax 
2cc7 a9 10    lda #$10
2cc9 2c 0d 18 bit $180d
2ccc f0 fb    beq $2cc9
2cce bd 00 b9 lda $b900,x
2cd1 05 54    ora $54
2cd3 2c 00 18 bit $1800
2cd6 8d 01 18 sta $1801
2cd9 45 3a    eor $3a
2cdb 85 3a    sta $3a
2cdd b3       ???
2cde 8c 84 34 sty $3484
2ce1 29 e0    and #$e0
2ce3 05 53    ora $53
2ce5 a8       tay 
2ce6 a9 10    lda #$10
2ce8 2c 0d 18 bit $180d
2ceb f0 fb    beq $2ce8
2ced b9 00 bb lda $bb00,y
2cf0 1d 00 bc ora $bc00,x
2cf3 2c 00 18 bit $1800
2cf6 8d 01 18 sta $1801
2cf9 45 3a    eor $3a
2cfb 85 3a    sta $3a
2cfd a4 34    ldy $34
2cff 88       dey 
2d00 a9 10    lda #$10
2d02 2c 0d 18 bit $180d
2d05 f0 fb    beq $2d02
2d07 4c 97 ac jmp $ac97
2d0a 2c 00 18 bit $1800
2d0d 8d 01 18 sta $1801
2d10 a9 10    lda #$10
2d12 2c 0d 18 bit $180d
2d15 f0 fb    beq $2d12
2d17 60       rts 
2d18 58       cli 
2d19 a2 0d    ldx #$0d
2d1b 20 df f0 jsr $f0df
2d1e 78       sei 
2d1f ad f9 02 lda $02f9
2d22 09 40    ora #$40
2d24 8d f9 02 sta $02f9
2d27 a9 01    lda #$01
2d29 85 79    sta $79
2d2b 85 83    sta $83
2d2d aa       tax 
2d2e 09 60    ora #$60
2d30 85 84    sta $84
2d32 bd 2b 02 lda $022b,x
2d35 29 0f    and #$0f
2d37 85 82    sta $82
2d39 aa       tax 
2d3a b5 a7    lda $a7,x
2d3c 10 02    bpl $2d40
2d3e b5 ae    lda $ae,x
2d40 29 bf    and #$bf
2d42 60       rts 
2d43 ac 02 02 ldy $0202
2d46 c0 2d    cpy #$2d
2d48 d0 01    bne $2d4b
2d4a 8a       txa 
2d4b 60       rts 
2d4c a9 e0    lda #$e0
2d4e 95 00    sta $00,x
2d50 9d 5b 02 sta $025b,x
2d53 4c 99 d5 jmp $d599
2d56 50 fe    bvc $2d56
2d58 b8       clv 
2d59 ad 28 06 lda $0628
2d5c 45 12    eor $12
2d5e 45 13    eor $13
2d60 45 22    eor $22
2d62 50 fe    bvc $2d62
2d64 b8       clv 
2d65 aa       tax 
2d66 bd 00 b2 lda $b200,x
2d69 09 40    ora #$40
2d6b 85 25    sta $25
2d6d 50 fe    bvc $2d6d
2d6f b8       clv 
2d70 bd 00 b3 lda $b300,x
2d73 ae 28 06 ldx $0628
2d76 1d 00 b4 ora $b400,x
2d79 85 26    sta $26
2d7b 50 fe    bvc $2d7b
2d7d b8       clv 
2d7e bd 00 b5 lda $b500,x
2d81 a6 22    ldx $22
2d83 1d 00 b6 ora $b600,x
2d86 85 27    sta $27
2d88 50 fe    bvc $2d88
2d8a b8       clv 
2d8b bd 00 b7 lda $b700,x
2d8e 85 28    sta $28
2d90 60       rts 
2d91 78       sei 
2d92 a9 00    lda #$00
2d94 8d 03 18 sta $1803
2d97 20 a5 e9 jsr $e9a5
2d9a a0 02    ldy #$02
2d9c 88       dey 
2d9d 30 12    bmi $2db1
2d9f b9 00 60 lda $6000,y
2da2 c9 12    cmp #$12
2da4 d0 f6    bne $2d9c
2da6 20 1b ad jsr $ad1b
2da9 a9 80    lda #$80
2dab 8d 0a 60 sta $600a
2dae 4c 2e ea jmp $ea2e
2db1 a9 0b    lda #$0b
2db3 8d 0c 18 sta $180c
2db6 2c 0d 18 bit $180d
2db9 2c 00 18 bit $1800
2dbc 2c 01 18 bit $1801
2dbf 20 1b ad jsr $ad1b
2dc2 85 85    sta $85
2dc4 0a       asl a
2dc5 aa       tax 
2dc6 b5 06    lda $06,x
2dc8 85 80    sta $80
2dca b5 07    lda $07,x
2dcc 85 81    sta $81
2dce a9 05    lda #$05
2dd0 8d 21 60 sta $6021
2dd3 a9 f5    lda #$f5
2dd5 8d 22 60 sta $6022
2dd8 a9 00    lda #$00
2dda 8d 24 60 sta $6024
2ddd 4c 07 ae jmp $ae07
2de0 ad 01 18 lda $1801
2de3 91 8a    sta ($8a),y
2de5 84 3a    sty $3a
2de7 38       sec 
2de8 a9 3f    lda #$3f
2dea e5 3a    sbc $3a
2dec 0a       asl a
2ded 0a       asl a
2dee 69 03    adc #$03
2df0 4c 23 af jmp $af23
2df3 ad 01 18 lda $1801
2df6 91 30    sta ($30),y
2df8 84 3a    sty $3a
2dfa 38       sec 
2dfb a9 3f    lda #$3f
2dfd e5 3a    sbc $3a
2dff 0a       asl a
2e00 0a       asl a
2e01 4c 23 af jmp $af23
2e04 a6 85    ldx $85
2e06 58       cli 
2e07 20 4f ad jsr $ad4f
2e0a 78       sei 
2e0b a5 81    lda $81
2e0d 0a       asl a
2e0e a8       tay 
2e0f b9 d0 bd lda $bdd0,y
2e12 85 30    sta $30
2e14 b9 d1 bd lda $bdd1,y
2e17 85 31    sta $31
2e19 a8       tay 
2e1a a5 30    lda $30
2e1c 20 83 a7 jsr $a783
2e1f a0 3f    ldy #$3f
2e21 a5 47    lda $47
2e23 91 30    sta ($30),y
2e25 a9 10    lda #$10
2e27 2c 0d 18 bit $180d
2e2a f0 fb    beq $2e27
2e2c a9 04    lda #$04
2e2e 2c 00 18 bit $1800
2e31 f0 ad    beq $2de0
2e33 ad 01 18 lda $1801
2e36 91 8a    sta ($8a),y
2e38 85 3a    sta $3a
2e3a 88       dey 
2e3b a9 10    lda #$10
2e3d 2c 0d 18 bit $180d
2e40 f0 fb    beq $2e3d
2e42 a9 04    lda #$04
2e44 2c 00 18 bit $1800
2e47 f0 aa    beq $2df3
2e49 ad 01 18 lda $1801
2e4c 91 30    sta ($30),y
2e4e 45 3a    eor $3a
2e50 85 3a    sta $3a
2e52 a9 10    lda #$10
2e54 2c 0d 18 bit $180d
2e57 f0 fb    beq $2e54
2e59 a9 04    lda #$04
2e5b 2c 00 18 bit $1800
2e5e f0 3e    beq $2e9e
2e60 ad 01 18 lda $1801
2e63 91 86    sta ($86),y
2e65 45 3a    eor $3a
2e67 85 3a    sta $3a
2e69 a9 10    lda #$10
2e6b 2c 0d 18 bit $180d
2e6e f0 fb    beq $2e6b
2e70 a9 04    lda #$04
2e72 2c 00 18 bit $1800
2e75 f0 38    beq $2eaf
2e77 ad 01 18 lda $1801
2e7a 91 88    sta ($88),y
2e7c 91 88    sta ($88),y
2e7e 45 3a    eor $3a
2e80 85 3a    sta $3a
2e82 a9 10    lda #$10
2e84 2c 0d 18 bit $180d
2e87 f0 fb    beq $2e84
2e89 a9 04    lda #$04
2e8b 2c 00 18 bit $1800
2e8e f0 a1    beq $2e31
2e90 ad 01 18 lda $1801
2e93 91 8a    sta ($8a),y
2e95 45 3a    eor $3a
2e97 85 3a    sta $3a
2e99 88       dey 
2e9a 10 9f    bpl $2e3b
2e9c 30 21    bmi $2ebf
2e9e ad 01 18 lda $1801
2ea1 91 86    sta ($86),y
2ea3 84 3a    sty $3a
2ea5 38       sec 
2ea6 a9 3f    lda #$3f
2ea8 e5 3a    sbc $3a
2eaa 0a       asl a
2eab 38       sec 
2eac 2a       rol a
2ead d0 71    bne $2f20
2eaf ad 01 18 lda $1801
2eb2 91 88    sta ($88),y
2eb4 84 3a    sty $3a
2eb6 38       sec 
2eb7 a9 3f    lda #$3f
2eb9 e5 3a    sbc $3a
2ebb 2a       rol a
2ebc 0a       asl a
2ebd d0 61    bne $2f20
2ebf e6 31    inc $31
2ec1 c8       iny 
2ec2 a9 10    lda #$10
2ec4 2c 0d 18 bit $180d
2ec7 f0 fb    beq $2ec4
2ec9 a9 04    lda #$04
2ecb 2c 00 18 bit $1800
2ece f0 48    beq $2f18
2ed0 ad 01 18 lda $1801
2ed3 91 30    sta ($30),y
2ed5 45 3a    eor $3a
2ed7 85 3a    sta $3a
2ed9 a6 81    ldx $81
2edb a9 30    lda #$30
2edd 9d 0c 60 sta $600c,x
2ee0 20 21 f1 jsr $f121
2ee3 a5 85    lda $85
2ee5 0a       asl a
2ee6 aa       tax 
2ee7 a0 3f    ldy #$3f
2ee9 a5 81    lda $81
2eeb 91 88    sta ($88),y
2eed 95 07    sta $07,x
2eef 45 3a    eor $3a
2ef1 85 3a    sta $3a
2ef3 a5 80    lda $80
2ef5 91 86    sta ($86),y
2ef7 d5 06    cmp $06,x
2ef9 08       php 
2efa 95 06    sta $06,x
2efc 45 3a    eor $3a
2efe a0 01    ldy #$01
2f00 91 30    sta ($30),y
2f02 a6 82    ldx $82
2f04 f6 b5    inc $b5,x
2f06 d0 02    bne $2f0a
2f08 f6 bb    inc $bb,x
2f0a 28       plp 
2f0b d0 03    bne $2f10
2f0d 4c 0e ae jmp $ae0e
2f10 a9 30    lda #$30
2f12 8d 0b 60 sta $600b
2f15 4c 07 ae jmp $ae07
2f18 ad 01 18 lda $1801
2f1b 48       pha 
2f1c a9 00    lda #$00
2f1e c6 31    dec $31
2f20 aa       tax 
2f21 a5 85    lda $85
2f23 0a       asl a
2f24 86 85    stx $85
2f26 aa       tax 
2f27 a9 02    lda #$02
2f29 95 99    sta $99,x
2f2b a0 3f    ldy #$3f
2f2d b1 8a    lda ($8a),y
2f2f 81 99    sta ($99,x)
2f31 f6 99    inc $99,x
2f33 b5 99    lda $99,x
2f35 c5 85    cmp $85
2f37 f0 39    beq $2f72
2f39 88       dey 
2f3a b1 30    lda ($30),y
2f3c 81 99    sta ($99,x)
2f3e f6 99    inc $99,x
2f40 b5 99    lda $99,x
2f42 c5 85    cmp $85
2f44 f0 2c    beq $2f72
2f46 b1 86    lda ($86),y
2f48 81 99    sta ($99,x)
2f4a f6 99    inc $99,x
2f4c b5 99    lda $99,x
2f4e c5 85    cmp $85
2f50 f0 20    beq $2f72
2f52 b1 88    lda ($88),y
2f54 81 99    sta ($99,x)
2f56 f6 99    inc $99,x
2f58 b5 99    lda $99,x
2f5a c5 85    cmp $85
2f5c f0 14    beq $2f72
2f5e b1 8a    lda ($8a),y
2f60 81 99    sta ($99,x)
2f62 f6 99    inc $99,x
2f64 b5 99    lda $99,x
2f66 c5 85    cmp $85
2f68 f0 08    beq $2f72
2f6a 88       dey 
2f6b 10 cd    bpl $2f3a
2f6d 68       pla 
2f6e 81 99    sta ($99,x)
2f70 f6 99    inc $99,x
2f72 a5 22    lda $22
2f74 8d 24 60 sta $6024
2f77 a9 30    lda #$30
2f79 8d 0b 60 sta $600b
2f7c 4c 94 c1 jmp $c194
2f7f ff       ???
2f80 ff       ???
2f81 ff       ???
2f82 ff       ???
2f83 ff       ???
2f84 ff       ???
2f85 ff       ???
2f86 ff       ???
2f87 ff       ???
2f88 ff       ???
2f89 ff       ???
2f8a ff       ???
2f8b ff       ???
2f8c ff       ???
2f8d ff       ???
2f8e ff       ???
2f8f ff       ???
2f90 ff       ???
2f91 ff       ???
2f92 ff       ???
2f93 ff       ???
2f94 ff       ???
2f95 ff       ???
2f96 ff       ???
2f97 ff       ???
2f98 ff       ???
2f99 ff       ???
2f9a ff       ???
2f9b ff       ???
2f9c ff       ???
2f9d ff       ???
2f9e ff       ???
2f9f ff       ???
2fa0 ff       ???
2fa1 ff       ???
2fa2 ff       ???
2fa3 ff       ???
2fa4 ff       ???
2fa5 ff       ???
2fa6 ff       ???
2fa7 ff       ???
2fa8 ff       ???
2fa9 ff       ???
2faa ff       ???
2fab ff       ???
2fac ff       ???
2fad ff       ???
2fae ff       ???
2faf ff       ???
2fb0 ff       ???
2fb1 ff       ???
2fb2 ff       ???
2fb3 ff       ???
2fb4 ff       ???
2fb5 ff       ???
2fb6 ff       ???
2fb7 ff       ???
2fb8 ff       ???
2fb9 ff       ???
2fba ff       ???
2fbb ff       ???
2fbc ff       ???
2fbd ff       ???
2fbe ff       ???
2fbf ff       ???
2fc0 ff       ???
2fc1 ff       ???
2fc2 ff       ???
2fc3 ff       ???
2fc4 ff       ???
2fc5 ff       ???
2fc6 ff       ???
2fc7 ff       ???
2fc8 ff       ???
2fc9 ff       ???
2fca ff       ???
2fcb ff       ???
2fcc ff       ???
2fcd ff       ???
2fce ff       ???
2fcf ff       ???
2fd0 ff       ???
2fd1 ff       ???
2fd2 ff       ???
2fd3 ff       ???
2fd4 ff       ???
2fd5 ff       ???
2fd6 ff       ???
2fd7 ff       ???
2fd8 ff       ???
2fd9 ff       ???
2fda ff       ???
2fdb ff       ???
2fdc ff       ???
2fdd ff       ???
2fde ff       ???
2fdf ff       ???
2fe0 ff       ???
2fe1 ff       ???
2fe2 ff       ???
2fe3 ff       ???
2fe4 ff       ???
2fe5 ff       ???
2fe6 ff       ???
2fe7 ff       ???
2fe8 ff       ???
2fe9 ff       ???
2fea ff       ???
2feb ff       ???
2fec ff       ???
2fed ff       ???
2fee ff       ???
2fef ff       ???
2ff0 ff       ???
2ff1 ff       ???
2ff2 ff       ???
2ff3 ff       ???
2ff4 ff       ???
2ff5 ff       ???
2ff6 ff       ???
2ff7 ff       ???
2ff8 ff       ???
2ff9 ff       ???
2ffa ff       ???
2ffb ff       ???
2ffc ff       ???
2ffd 52       ???
2ffe 52       ???
2fff 54       ???
3000 54       ???
3001 53       ???
3002 53       ???
3003 55 55    eor $55,x
3005 52       ???
3006 56 56    lsr $56,x
3008 56 53    lsr $53,x
300a 57       ???
300b 57       ???
300c 55 5a    eor $5a,x
300e 5a       ???
300f 5c       ???
3010 5c       ???
3011 5b       ???
3012 5b       ???
3013 5d 5d 5a eor $5a5d,x
3016 5e 5e 5e lsr $5e5e,x
3019 5b       ???
301a 5f       ???
301b 5f       ???
301c 5d 92 92 eor $9292,x
301f 94 94    sty $94,x
3021 93       ???
3022 93       ???
3023 95 95    sta $95,x
3025 92       ???
3026 96 96    stx $96,y
3028 96 93    stx $93,y
302a 97       ???
302b 97       ???
302c 95 9a    sta $9a,x
302e 9a       txs 
302f 9c       ???
3030 9c       ???
3031 9b       ???
3032 9b       ???
3033 9d 9d 9a sta $9a9d,x
3036 9e       ???
3037 9e       ???
3038 9e       ???
3039 9b       ???
303a 9f       ???
303b 9f       ???
303c 9d 72 72 sta $7272,x
303f 74       ???
3040 74       ???
3041 73       ???
3042 73       ???
3043 75 75    adc $75,x
3045 72       ???
3046 76 76    ror $76,x
3048 76 73    ror $73,x
304a 77       ???
304b 77       ???
304c 75 7a    adc $7a,x
304e 7a       ???
304f 7c       ???
3050 7c       ???
3051 7b       ???
3052 7b       ???
3053 7d 7d 7a adc $7a7d,x
3056 7e 7e 7e ror $7e7e,x
3059 7b       ???
305a 7f       ???
305b 7f       ???
305c 7d b2 b2 adc $b2b2,x
305f b4 b4    ldy $b4,x
3061 b3       ???
3062 b3       ???
3063 b5 b5    lda $b5,x
3065 b2       ???
3066 b6 b6    ldx $b6,y
3068 b6 b3    ldx $b3,y
306a b7       ???
306b b7       ???
306c b5 ba    lda $ba,x
306e ba       tsx 
306f bc bc bb ldy $bbbc,x
3072 bb       ???
3073 bd bd ba lda $babd,x
3076 be be be ldx $bebe,y
3079 bb       ???
307a bf       ???
307b bf       ???
307c bd 4a 4a lda $4a4a,x
307f 4c 4c 4b jmp $4b4c
3082 4b       ???
3083 4d 4d 4a eor $4a4d
3086 4e 4e 4e lsr $4e4e
3089 4b       ???
308a 4f       ???
308b 4f       ???
308c 4d ca ca eor $caca
308f cc cc cb cpy $cbcc
3092 cb       ???
3093 cd cd ca cmp $cacd
3096 ce ce ce dec $cece
3099 cb       ???
309a cf       ???
309b cf       ???
309c cd d2 d2 cmp $d2d2
309f d4       ???
30a0 d4       ???
30a1 d3       ???
30a2 d3       ???
30a3 d5 d5    cmp $d5,x
30a5 d2       ???
30a6 d6 d6    dec $d6,x
30a8 d6 d3    dec $d3,x
30aa d7       ???
30ab d7       ???
30ac d5 da    cmp $da,x
30ae da       ???
30af dc       ???
30b0 dc       ???
30b1 db       ???
30b2 db       ???
30b3 dd dd da cmp $dadd,x
30b6 de de de dec $dede,x
30b9 db       ???
30ba df       ???
30bb df       ???
30bc dd 6a 6a cmp $6a6a,x
30bf 6c 6c 6b jmp ($6b6c)
30c2 6b       ???
30c3 6d 6d 6a adc $6a6d
30c6 6e 6e 6e ror $6e6e
30c9 6b       ???
30ca 6f       ???
30cb 6f       ???
30cc 6d ea ea adc $eaea
30cf ec ec eb cpx $ebec
30d2 eb       ???
30d3 ed ed ea sbc $eaed
30d6 ee ee ee inc $eeee
30d9 eb       ???
30da ef       ???
30db ef       ???
30dc ed f2 f2 sbc $f2f2
30df f4       ???
30e0 f4       ???
30e1 f3       ???
30e2 f3       ???
30e3 f5 f5    sbc $f5,x
30e5 f2       ???
30e6 f6 f6    inc $f6,x
30e8 f6 f3    inc $f3,x
30ea f7       ???
30eb f7       ???
30ec f5 aa    sbc $aa,x
30ee aa       tax 
30ef ac ac ab ldy $abac
30f2 ab       ???
30f3 ad ad aa lda $aaad
30f6 ae ae ae ldx $aeae
30f9 ab       ???
30fa af       ???
30fb af       ???
30fc ad 80 c0 lda $c080
30ff 80       ???
3100 c0 80    cpy #$80
3102 c0 80    cpy #$80
3104 c0 40    cpy #$40
3106 40       rti 
3107 80       ???
3108 c0 40    cpy #$40
310a 40       rti 
310b 80       ???
310c 40       rti 
310d 80       ???
310e c0 80    cpy #$80
3110 c0 80    cpy #$80
3112 c0 80    cpy #$80
3114 c0 40    cpy #$40
3116 40       rti 
3117 80       ???
3118 c0 40    cpy #$40
311a 40       rti 
311b 80       ???
311c 40       rti 
311d 80       ???
311e c0 80    cpy #$80
3120 c0 80    cpy #$80
3122 c0 80    cpy #$80
3124 c0 40    cpy #$40
3126 40       rti 
3127 80       ???
3128 c0 40    cpy #$40
312a 40       rti 
312b 80       ???
312c 40       rti 
312d 80       ???
312e c0 80    cpy #$80
3130 c0 80    cpy #$80
3132 c0 80    cpy #$80
3134 c0 40    cpy #$40
3136 40       rti 
3137 80       ???
3138 c0 40    cpy #$40
313a 40       rti 
313b 80       ???
313c 40       rti 
313d 80       ???
313e c0 80    cpy #$80
3140 c0 80    cpy #$80
3142 c0 80    cpy #$80
3144 c0 40    cpy #$40
3146 40       rti 
3147 80       ???
3148 c0 40    cpy #$40
314a 40       rti 
314b 80       ???
314c 40       rti 
314d 80       ???
314e c0 80    cpy #$80
3150 c0 80    cpy #$80
3152 c0 80    cpy #$80
3154 c0 40    cpy #$40
3156 40       rti 
3157 80       ???
3158 c0 40    cpy #$40
315a 40       rti 
315b 80       ???
315c 40       rti 
315d 80       ???
315e c0 80    cpy #$80
3160 c0 80    cpy #$80
3162 c0 80    cpy #$80
3164 c0 40    cpy #$40
3166 40       rti 
3167 80       ???
3168 c0 40    cpy #$40
316a 40       rti 
316b 80       ???
316c 40       rti 
316d 80       ???
316e c0 80    cpy #$80
3170 c0 80    cpy #$80
3172 c0 80    cpy #$80
3174 c0 40    cpy #$40
3176 40       rti 
3177 80       ???
3178 c0 40    cpy #$40
317a 40       rti 
317b 80       ???
317c 40       rti 
317d 80       ???
317e c0 80    cpy #$80
3180 c0 80    cpy #$80
3182 c0 80    cpy #$80
3184 c0 40    cpy #$40
3186 40       rti 
3187 80       ???
3188 c0 40    cpy #$40
318a 40       rti 
318b 80       ???
318c 40       rti 
318d 80       ???
318e c0 80    cpy #$80
3190 c0 80    cpy #$80
3192 c0 80    cpy #$80
3194 c0 40    cpy #$40
3196 40       rti 
3197 80       ???
3198 c0 40    cpy #$40
319a 40       rti 
319b 80       ???
319c 40       rti 
319d 80       ???
319e c0 80    cpy #$80
31a0 c0 80    cpy #$80
31a2 c0 80    cpy #$80
31a4 c0 40    cpy #$40
31a6 40       rti 
31a7 80       ???
31a8 c0 40    cpy #$40
31aa 40       rti 
31ab 80       ???
31ac 40       rti 
31ad 80       ???
31ae c0 80    cpy #$80
31b0 c0 80    cpy #$80
31b2 c0 80    cpy #$80
31b4 c0 40    cpy #$40
31b6 40       rti 
31b7 80       ???
31b8 c0 40    cpy #$40
31ba 40       rti 
31bb 80       ???
31bc 40       rti 
31bd 80       ???
31be c0 80    cpy #$80
31c0 c0 80    cpy #$80
31c2 c0 80    cpy #$80
31c4 c0 40    cpy #$40
31c6 40       rti 
31c7 80       ???
31c8 c0 40    cpy #$40
31ca 40       rti 
31cb 80       ???
31cc 40       rti 
31cd 80       ???
31ce c0 80    cpy #$80
31d0 c0 80    cpy #$80
31d2 c0 80    cpy #$80
31d4 c0 40    cpy #$40
31d6 40       rti 
31d7 80       ???
31d8 c0 40    cpy #$40
31da 40       rti 
31db 80       ???
31dc 40       rti 
31dd 80       ???
31de c0 80    cpy #$80
31e0 c0 80    cpy #$80
31e2 c0 80    cpy #$80
31e4 c0 40    cpy #$40
31e6 40       rti 
31e7 80       ???
31e8 c0 40    cpy #$40
31ea 40       rti 
31eb 80       ???
31ec 40       rti 
31ed 80       ???
31ee c0 80    cpy #$80
31f0 c0 80    cpy #$80
31f2 c0 80    cpy #$80
31f4 c0 40    cpy #$40
31f6 40       rti 
31f7 80       ???
31f8 c0 40    cpy #$40
31fa 40       rti 
31fb 80       ???
31fc 40       rti 
31fd 14       ???
31fe 14       ???
31ff 15 15    ora $15,x
3201 14       ???
3202 14       ???
3203 15 15    ora $15,x
3205 14       ???
3206 15 15    ora $15,x
3208 15 14    ora $14,x
320a 15 15    ora $15,x
320c 15 16    ora $16,x
320e 16 17    asl $17,x
3210 17       ???
3211 16 16    asl $16,x
3213 17       ???
3214 17       ???
3215 16 17    asl $17,x
3217 17       ???
3218 17       ???
3219 16 17    asl $17,x
321b 17       ???
321c 17       ???
321d 24 24    bit $24
321f 25 25    and $25
3221 24 24    bit $24
3223 25 25    and $25
3225 24 25    bit $25
3227 25 25    and $25
3229 24 25    bit $25
322b 25 25    and $25
322d 26 26    rol $26
322f 27       ???
3230 27       ???
3231 26 26    rol $26
3233 27       ???
3234 27       ???
3235 26 27    rol $27
3237 27       ???
3238 27       ???
3239 26 27    rol $27
323b 27       ???
323c 27       ???
323d 1c       ???
323e 1c       ???
323f 1d 1d 1c ora $1c1d,x
3242 1c       ???
3243 1d 1d 1c ora $1c1d,x
3246 1d 1d 1d ora $1d1d,x
3249 1c       ???
324a 1d 1d 1d ora $1d1d,x
324d 1e 1e 1f asl $1f1e,x
3250 1f       ???
3251 1e 1e 1f asl $1f1e,x
3254 1f       ???
3255 1e 1f 1f asl $1f1f,x
3258 1f       ???
3259 1e 1f 1f asl $1f1f,x
325c 1f       ???
325d 2c 2c 2d bit $2d2c
3260 2d 2c 2c and $2c2c
3263 2d 2d 2c and $2c2d
3266 2d 2d 2d and $2d2d
3269 2c 2d 2d bit $2d2d
326c 2d 2e 2e and $2e2e
326f 2f       ???
3270 2f       ???
3271 2e 2e 2f rol $2f2e
3274 2f       ???
3275 2e 2f 2f rol $2f2f
3278 2f       ???
3279 2e 2f 2f rol $2f2f
327c 2f       ???
327d 12       ???
327e 12       ???
327f 13       ???
3280 13       ???
3281 12       ???
3282 12       ???
3283 13       ???
3284 13       ???
3285 12       ???
3286 13       ???
3287 13       ???
3288 13       ???
3289 12       ???
328a 13       ???
328b 13       ???
328c 13       ???
328d 32       ???
328e 32       ???
328f 33       ???
3290 33       ???
3291 32       ???
3292 32       ???
3293 33       ???
3294 33       ???
3295 32       ???
3296 33       ???
3297 33       ???
3298 33       ???
3299 32       ???
329a 33       ???
329b 33       ???
329c 33       ???
329d 34       ???
329e 34       ???
329f 35 35    and $35,x
32a1 34       ???
32a2 34       ???
32a3 35 35    and $35,x
32a5 34       ???
32a6 35 35    and $35,x
32a8 35 34    and $34,x
32aa 35 35    and $35,x
32ac 35 36    and $36,x
32ae 36 37    rol $37,x
32b0 37       ???
32b1 36 36    rol $36,x
32b3 37       ???
32b4 37       ???
32b5 36 37    rol $37,x
32b7 37       ???
32b8 37       ???
32b9 36 37    rol $37,x
32bb 37       ???
32bc 37       ???
32bd 1a       ???
32be 1a       ???
32bf 1b       ???
32c0 1b       ???
32c1 1a       ???
32c2 1a       ???
32c3 1b       ???
32c4 1b       ???
32c5 1a       ???
32c6 1b       ???
32c7 1b       ???
32c8 1b       ???
32c9 1a       ???
32ca 1b       ???
32cb 1b       ???
32cc 1b       ???
32cd 3a       ???
32ce 3a       ???
32cf 3b       ???
32d0 3b       ???
32d1 3a       ???
32d2 3a       ???
32d3 3b       ???
32d4 3b       ???
32d5 3a       ???
32d6 3b       ???
32d7 3b       ???
32d8 3b       ???
32d9 3a       ???
32da 3b       ???
32db 3b       ???
32dc 3b       ???
32dd 3c       ???
32de 3c       ???
32df 3d 3d 3c and $3c3d,x
32e2 3c       ???
32e3 3d 3d 3c and $3c3d,x
32e6 3d 3d 3d and $3d3d,x
32e9 3c       ???
32ea 3d 3d 3d and $3d3d,x
32ed 2a       rol a
32ee 2a       rol a
32ef 2b       ???
32f0 2b       ???
32f1 2a       rol a
32f2 2a       rol a
32f3 2b       ???
32f4 2b       ???
32f5 2a       rol a
32f6 2b       ???
32f7 2b       ???
32f8 2b       ???
32f9 2a       rol a
32fa 2b       ???
32fb 2b       ???
32fc 2b       ???
32fd a0 b0    ldy #$b0
32ff 20 30 e0 jsr $e030
3302 f0 60    beq $3364
3304 70 90    bvs $3296
3306 90 a0    bcc $32a8
3308 b0 d0    bcs $32da
330a d0 e0    bne $32ec
330c 50 a0    bvc $32ae
330e b0 20    bcs $3330
3310 30 e0    bmi $32f2
3312 f0 60    beq $3374
3314 70 90    bvs $32a6
3316 90 a0    bcc $32b8
3318 b0 d0    bcs $32ea
331a d0 e0    bne $32fc
331c 50 a0    bvc $32be
331e b0 20    bcs $3340
3320 30 e0    bmi $3302
3322 f0 60    beq $3384
3324 70 90    bvs $32b6
3326 90 a0    bcc $32c8
3328 b0 d0    bcs $32fa
332a d0 e0    bne $330c
332c 50 a0    bvc $32ce
332e b0 20    bcs $3350
3330 30 e0    bmi $3312
3332 f0 60    beq $3394
3334 70 90    bvs $32c6
3336 90 a0    bcc $32d8
3338 b0 d0    bcs $330a
333a d0 e0    bne $331c
333c 50 a0    bvc $32de
333e b0 20    bcs $3360
3340 30 e0    bmi $3322
3342 f0 60    beq $33a4
3344 70 90    bvs $32d6
3346 90 a0    bcc $32e8
3348 b0 d0    bcs $331a
334a d0 e0    bne $332c
334c 50 a0    bvc $32ee
334e b0 20    bcs $3370
3350 30 e0    bmi $3332
3352 f0 60    beq $33b4
3354 70 90    bvs $32e6
3356 90 a0    bcc $32f8
3358 b0 d0    bcs $332a
335a d0 e0    bne $333c
335c 50 a0    bvc $32fe
335e b0 20    bcs $3380
3360 30 e0    bmi $3342
3362 f0 60    beq $33c4
3364 70 90    bvs $32f6
3366 90 a0    bcc $3308
3368 b0 d0    bcs $333a
336a d0 e0    bne $334c
336c 50 a0    bvc $330e
336e b0 20    bcs $3390
3370 30 e0    bmi $3352
3372 f0 60    beq $33d4
3374 70 90    bvs $3306
3376 90 a0    bcc $3318
3378 b0 d0    bcs $334a
337a d0 e0    bne $335c
337c 50 a0    bvc $331e
337e b0 20    bcs $33a0
3380 30 e0    bmi $3362
3382 f0 60    beq $33e4
3384 70 90    bvs $3316
3386 90 a0    bcc $3328
3388 b0 d0    bcs $335a
338a d0 e0    bne $336c
338c 50 a0    bvc $332e
338e b0 20    bcs $33b0
3390 30 e0    bmi $3372
3392 f0 60    beq $33f4
3394 70 90    bvs $3326
3396 90 a0    bcc $3338
3398 b0 d0    bcs $336a
339a d0 e0    bne $337c
339c 50 a0    bvc $333e
339e b0 20    bcs $33c0
33a0 30 e0    bmi $3382
33a2 f0 60    beq $3404
33a4 70 90    bvs $3336
33a6 90 a0    bcc $3348
33a8 b0 d0    bcs $337a
33aa d0 e0    bne $338c
33ac 50 a0    bvc $334e
33ae b0 20    bcs $33d0
33b0 30 e0    bmi $3392
33b2 f0 60    beq $3414
33b4 70 90    bvs $3346
33b6 90 a0    bcc $3358
33b8 b0 d0    bcs $338a
33ba d0 e0    bne $339c
33bc 50 a0    bvc $335e
33be b0 20    bcs $33e0
33c0 30 e0    bmi $33a2
33c2 f0 60    beq $3424
33c4 70 90    bvs $3356
33c6 90 a0    bcc $3368
33c8 b0 d0    bcs $339a
33ca d0 e0    bne $33ac
33cc 50 a0    bvc $336e
33ce b0 20    bcs $33f0
33d0 30 e0    bmi $33b2
33d2 f0 60    beq $3434
33d4 70 90    bvs $3366
33d6 90 a0    bcc $3378
33d8 b0 d0    bcs $33aa
33da d0 e0    bne $33bc
33dc 50 a0    bvc $337e
33de b0 20    bcs $3400
33e0 30 e0    bmi $33c2
33e2 f0 60    beq $3444
33e4 70 90    bvs $3376
33e6 90 a0    bcc $3388
33e8 b0 d0    bcs $33ba
33ea d0 e0    bne $33cc
33ec 50 a0    bvc $338e
33ee b0 20    bcs $3410
33f0 30 e0    bmi $33d2
33f2 f0 60    beq $3454
33f4 70 90    bvs $3386
33f6 90 a0    bcc $3398
33f8 b0 d0    bcs $33ca
33fa d0 e0    bne $33dc
33fc 50 05    bvc $3403
33fe 05 05    ora $05
3400 05 05    ora $05
3402 05 05    ora $05
3404 05 05    ora $05
3406 05 05    ora $05
3408 05 05    ora $05
340a 05 05    ora $05
340c 05 05    ora $05
340e 05 05    ora $05
3410 05 05    ora $05
3412 05 05    ora $05
3414 05 05    ora $05
3416 05 05    ora $05
3418 05 05    ora $05
341a 05 05    ora $05
341c 05 09    ora $09
341e 09 09    ora #$09
3420 09 09    ora #$09
3422 09 09    ora #$09
3424 09 09    ora #$09
3426 09 09    ora #$09
3428 09 09    ora #$09
342a 09 09    ora #$09
342c 09 09    ora #$09
342e 09 09    ora #$09
3430 09 09    ora #$09
3432 09 09    ora #$09
3434 09 09    ora #$09
3436 09 09    ora #$09
3438 09 09    ora #$09
343a 09 09    ora #$09
343c 09 07    ora #$07
343e 07       ???
343f 07       ???
3440 07       ???
3441 07       ???
3442 07       ???
3443 07       ???
3444 07       ???
3445 07       ???
3446 07       ???
3447 07       ???
3448 07       ???
3449 07       ???
344a 07       ???
344b 07       ???
344c 07       ???
344d 07       ???
344e 07       ???
344f 07       ???
3450 07       ???
3451 07       ???
3452 07       ???
3453 07       ???
3454 07       ???
3455 07       ???
3456 07       ???
3457 07       ???
3458 07       ???
3459 07       ???
345a 07       ???
345b 07       ???
345c 07       ???
345d 0b       ???
345e 0b       ???
345f 0b       ???
3460 0b       ???
3461 0b       ???
3462 0b       ???
3463 0b       ???
3464 0b       ???
3465 0b       ???
3466 0b       ???
3467 0b       ???
3468 0b       ???
3469 0b       ???
346a 0b       ???
346b 0b       ???
346c 0b       ???
346d 0b       ???
346e 0b       ???
346f 0b       ???
3470 0b       ???
3471 0b       ???
3472 0b       ???
3473 0b       ???
3474 0b       ???
3475 0b       ???
3476 0b       ???
3477 0b       ???
3478 0b       ???
3479 0b       ???
347a 0b       ???
347b 0b       ???
347c 0b       ???
347d 04       ???
347e 04       ???
347f 04       ???
3480 04       ???
3481 04       ???
3482 04       ???
3483 04       ???
3484 04       ???
3485 04       ???
3486 04       ???
3487 04       ???
3488 04       ???
3489 04       ???
348a 04       ???
348b 04       ???
348c 04       ???
348d 0c       ???
348e 0c       ???
348f 0c       ???
3490 0c       ???
3491 0c       ???
3492 0c       ???
3493 0c       ???
3494 0c       ???
3495 0c       ???
3496 0c       ???
3497 0c       ???
3498 0c       ???
3499 0c       ???
349a 0c       ???
349b 0c       ???
349c 0c       ???
349d 0d 0d 0d ora $0d0d
34a0 0d 0d 0d ora $0d0d
34a3 0d 0d 0d ora $0d0d
34a6 0d 0d 0d ora $0d0d
34a9 0d 0d 0d ora $0d0d
34ac 0d 0d 0d ora $0d0d
34af 0d 0d 0d ora $0d0d
34b2 0d 0d 0d ora $0d0d
34b5 0d 0d 0d ora $0d0d
34b8 0d 0d 0d ora $0d0d
34bb 0d 0d 06 ora $060d
34be 06 06    asl $06
34c0 06 06    asl $06
34c2 06 06    asl $06
34c4 06 06    asl $06
34c6 06 06    asl $06
34c8 06 06    asl $06
34ca 06 06    asl $06
34cc 06 0e    asl $0e
34ce 0e 0e 0e asl $0e0e
34d1 0e 0e 0e asl $0e0e
34d4 0e 0e 0e asl $0e0e
34d7 0e 0e 0e asl $0e0e
34da 0e 0e 0e asl $0e0e
34dd 0f       ???
34de 0f       ???
34df 0f       ???
34e0 0f       ???
34e1 0f       ???
34e2 0f       ???
34e3 0f       ???
34e4 0f       ???
34e5 0f       ???
34e6 0f       ???
34e7 0f       ???
34e8 0f       ???
34e9 0f       ???
34ea 0f       ???
34eb 0f       ???
34ec 0f       ???
34ed 0a       asl a
34ee 0a       asl a
34ef 0a       asl a
34f0 0a       asl a
34f1 0a       asl a
34f2 0a       asl a
34f3 0a       asl a
34f4 0a       asl a
34f5 0a       asl a
34f6 0a       asl a
34f7 0a       asl a
34f8 0a       asl a
34f9 0a       asl a
34fa 0a       asl a
34fb 0a       asl a
34fc 0a       asl a
34fd 28       plp 
34fe 2c 48 4c bit $4c48
3501 38       sec 
3502 3c       ???
3503 58       cli 
3504 5c       ???
3505 24 64    bit $64
3507 68       pla 
3508 6c 34 74 jmp ($7434)
350b 78       sei 
350c 54       ???
350d a8       tay 
350e ac c8 cc ldy $ccc8
3511 b8       clv 
3512 bc d8 dc ldy $dcd8,x
3515 a4 e4    ldy $e4
3517 e8       inx 
3518 ec b4 f4 cpx $f4b4
351b f8       sed 
351c d4       ???
351d 28       plp 
351e 2c 48 4c bit $4c48
3521 38       sec 
3522 3c       ???
3523 58       cli 
3524 5c       ???
3525 24 64    bit $64
3527 68       pla 
3528 6c 34 74 jmp ($7434)
352b 78       sei 
352c 54       ???
352d a8       tay 
352e ac c8 cc ldy $ccc8
3531 b8       clv 
3532 bc d8 dc ldy $dcd8,x
3535 a4 e4    ldy $e4
3537 e8       inx 
3538 ec b4 f4 cpx $f4b4
353b f8       sed 
353c d4       ???
353d 28       plp 
353e 2c 48 4c bit $4c48
3541 38       sec 
3542 3c       ???
3543 58       cli 
3544 5c       ???
3545 24 64    bit $64
3547 68       pla 
3548 6c 34 74 jmp ($7434)
354b 78       sei 
354c 54       ???
354d a8       tay 
354e ac c8 cc ldy $ccc8
3551 b8       clv 
3552 bc d8 dc ldy $dcd8,x
3555 a4 e4    ldy $e4
3557 e8       inx 
3558 ec b4 f4 cpx $f4b4
355b f8       sed 
355c d4       ???
355d 28       plp 
355e 2c 48 4c bit $4c48
3561 38       sec 
3562 3c       ???
3563 58       cli 
3564 5c       ???
3565 24 64    bit $64
3567 68       pla 
3568 6c 34 74 jmp ($7434)
356b 78       sei 
356c 54       ???
356d a8       tay 
356e ac c8 cc ldy $ccc8
3571 b8       clv 
3572 bc d8 dc ldy $dcd8,x
3575 a4 e4    ldy $e4
3577 e8       inx 
3578 ec b4 f4 cpx $f4b4
357b f8       sed 
357c d4       ???
357d a8       tay 
357e ac c8 cc ldy $ccc8
3581 b8       clv 
3582 bc d8 dc ldy $dcd8,x
3585 a4 e4    ldy $e4
3587 e8       inx 
3588 ec b4 f4 cpx $f4b4
358b f8       sed 
358c d4       ???
358d a8       tay 
358e ac c8 cc ldy $ccc8
3591 b8       clv 
3592 bc d8 dc ldy $dcd8,x
3595 a4 e4    ldy $e4
3597 e8       inx 
3598 ec b4 f4 cpx $f4b4
359b f8       sed 
359c d4       ???
359d 28       plp 
359e 2c 48 4c bit $4c48
35a1 38       sec 
35a2 3c       ???
35a3 58       cli 
35a4 5c       ???
35a5 24 64    bit $64
35a7 68       pla 
35a8 6c 34 74 jmp ($7434)
35ab 78       sei 
35ac 54       ???
35ad a8       tay 
35ae ac c8 cc ldy $ccc8
35b1 b8       clv 
35b2 bc d8 dc ldy $dcd8,x
35b5 a4 e4    ldy $e4
35b7 e8       inx 
35b8 ec b4 f4 cpx $f4b4
35bb f8       sed 
35bc d4       ???
35bd a8       tay 
35be ac c8 cc ldy $ccc8
35c1 b8       clv 
35c2 bc d8 dc ldy $dcd8,x
35c5 a4 e4    ldy $e4
35c7 e8       inx 
35c8 ec b4 f4 cpx $f4b4
35cb f8       sed 
35cc d4       ???
35cd a8       tay 
35ce ac c8 cc ldy $ccc8
35d1 b8       clv 
35d2 bc d8 dc ldy $dcd8,x
35d5 a4 e4    ldy $e4
35d7 e8       inx 
35d8 ec b4 f4 cpx $f4b4
35db f8       sed 
35dc d4       ???
35dd 28       plp 
35de 2c 48 4c bit $4c48
35e1 38       sec 
35e2 3c       ???
35e3 58       cli 
35e4 5c       ???
35e5 24 64    bit $64
35e7 68       pla 
35e8 6c 34 74 jmp ($7434)
35eb 78       sei 
35ec 54       ???
35ed a8       tay 
35ee ac c8 cc ldy $ccc8
35f1 b8       clv 
35f2 bc d8 dc ldy $dcd8,x
35f5 a4 e4    ldy $e4
35f7 e8       inx 
35f8 ec b4 f4 cpx $f4b4
35fb f8       sed 
35fc d4       ???
35fd 01 01    ora ($01,x)
35ff 01 01    ora ($01,x)
3601 01 01    ora ($01,x)
3603 01 01    ora ($01,x)
3605 01 01    ora ($01,x)
3607 01 01    ora ($01,x)
3609 01 01    ora ($01,x)
360b 01 01    ora ($01,x)
360d 01 01    ora ($01,x)
360f 01 01    ora ($01,x)
3611 01 01    ora ($01,x)
3613 01 01    ora ($01,x)
3615 01 01    ora ($01,x)
3617 01 01    ora ($01,x)
3619 01 01    ora ($01,x)
361b 01 01    ora ($01,x)
361d 02       ???
361e 02       ???
361f 02       ???
3620 02       ???
3621 02       ???
3622 02       ???
3623 02       ???
3624 02       ???
3625 02       ???
3626 02       ???
3627 02       ???
3628 02       ???
3629 02       ???
362a 02       ???
362b 02       ???
362c 02       ???
362d 02       ???
362e 02       ???
362f 02       ???
3630 02       ???
3631 02       ???
3632 02       ???
3633 02       ???
3634 02       ???
3635 02       ???
3636 02       ???
3637 02       ???
3638 02       ???
3639 02       ???
363a 02       ???
363b 02       ???
363c 02       ???
363d 01 01    ora ($01,x)
363f 01 01    ora ($01,x)
3641 01 01    ora ($01,x)
3643 01 01    ora ($01,x)
3645 01 01    ora ($01,x)
3647 01 01    ora ($01,x)
3649 01 01    ora ($01,x)
364b 01 01    ora ($01,x)
364d 01 01    ora ($01,x)
364f 01 01    ora ($01,x)
3651 01 01    ora ($01,x)
3653 01 01    ora ($01,x)
3655 01 01    ora ($01,x)
3657 01 01    ora ($01,x)
3659 01 01    ora ($01,x)
365b 01 01    ora ($01,x)
365d 02       ???
365e 02       ???
365f 02       ???
3660 02       ???
3661 02       ???
3662 02       ???
3663 02       ???
3664 02       ???
3665 02       ???
3666 02       ???
3667 02       ???
3668 02       ???
3669 02       ???
366a 02       ???
366b 02       ???
366c 02       ???
366d 02       ???
366e 02       ???
366f 02       ???
3670 02       ???
3671 02       ???
3672 02       ???
3673 02       ???
3674 02       ???
3675 02       ???
3676 02       ???
3677 02       ???
3678 02       ???
3679 02       ???
367a 02       ???
367b 02       ???
367c 02       ???
367d 01 01    ora ($01,x)
367f 01 01    ora ($01,x)
3681 01 01    ora ($01,x)
3683 01 01    ora ($01,x)
3685 01 01    ora ($01,x)
3687 01 01    ora ($01,x)
3689 01 01    ora ($01,x)
368b 01 01    ora ($01,x)
368d 03       ???
368e 03       ???
368f 03       ???
3690 03       ???
3691 03       ???
3692 03       ???
3693 03       ???
3694 03       ???
3695 03       ???
3696 03       ???
3697 03       ???
3698 03       ???
3699 03       ???
369a 03       ???
369b 03       ???
369c 03       ???
369d 03       ???
369e 03       ???
369f 03       ???
36a0 03       ???
36a1 03       ???
36a2 03       ???
36a3 03       ???
36a4 03       ???
36a5 03       ???
36a6 03       ???
36a7 03       ???
36a8 03       ???
36a9 03       ???
36aa 03       ???
36ab 03       ???
36ac 03       ???
36ad 03       ???
36ae 03       ???
36af 03       ???
36b0 03       ???
36b1 03       ???
36b2 03       ???
36b3 03       ???
36b4 03       ???
36b5 03       ???
36b6 03       ???
36b7 03       ???
36b8 03       ???
36b9 03       ???
36ba 03       ???
36bb 03       ???
36bc 03       ???
36bd 01 01    ora ($01,x)
36bf 01 01    ora ($01,x)
36c1 01 01    ora ($01,x)
36c3 01 01    ora ($01,x)
36c5 01 01    ora ($01,x)
36c7 01 01    ora ($01,x)
36c9 01 01    ora ($01,x)
36cb 01 01    ora ($01,x)
36cd 03       ???
36ce 03       ???
36cf 03       ???
36d0 03       ???
36d1 03       ???
36d2 03       ???
36d3 03       ???
36d4 03       ???
36d5 03       ???
36d6 03       ???
36d7 03       ???
36d8 03       ???
36d9 03       ???
36da 03       ???
36db 03       ???
36dc 03       ???
36dd 03       ???
36de 03       ???
36df 03       ???
36e0 03       ???
36e1 03       ???
36e2 03       ???
36e3 03       ???
36e4 03       ???
36e5 03       ???
36e6 03       ???
36e7 03       ???
36e8 03       ???
36e9 03       ???
36ea 03       ???
36eb 03       ???
36ec 03       ???
36ed 02       ???
36ee 02       ???
36ef 02       ???
36f0 02       ???
36f1 02       ???
36f2 02       ???
36f3 02       ???
36f4 02       ???
36f5 02       ???
36f6 02       ???
36f7 02       ???
36f8 02       ???
36f9 02       ???
36fa 02       ???
36fb 02       ???
36fc 02       ???
36fd 4a       lsr a
36fe 4b       ???
36ff 52       ???
3700 53       ???
3701 4e 4f 56 lsr $564f
3704 57       ???
3705 49 59    eor #$59
3707 5a       ???
3708 5b       ???
3709 4d 5d 5e eor $5e5d
370c 55 6a    eor $6a,x
370e 6b       ???
370f 72       ???
3710 73       ???
3711 6e 6f 76 ror $766f
3714 77       ???
3715 69 79    adc #$79
3717 7a       ???
3718 7b       ???
3719 6d 7d 7e adc $7e7d
371c 75 4a    adc $4a,x
371e 4b       ???
371f 52       ???
3720 53       ???
3721 4e 4f 56 lsr $564f
3724 57       ???
3725 49 59    eor #$59
3727 5a       ???
3728 5b       ???
3729 4d 5d 5e eor $5e5d
372c 55 6a    eor $6a,x
372e 6b       ???
372f 72       ???
3730 73       ???
3731 6e 6f 76 ror $766f
3734 77       ???
3735 69 79    adc #$79
3737 7a       ???
3738 7b       ???
3739 6d 7d 7e adc $7e7d
373c 75 ca    adc $ca,x
373e cb       ???
373f d2       ???
3740 d3       ???
3741 ce cf d6 dec $d6cf
3744 d7       ???
3745 c9 d9    cmp #$d9
3747 da       ???
3748 db       ???
3749 cd dd de cmp $dedd
374c d5 ea    cmp $ea,x
374e eb       ???
374f f2       ???
3750 f3       ???
3751 ee ef f6 inc $f6ef
3754 f7       ???
3755 e9 f9    sbc #$f9
3757 fa       ???
3758 fb       ???
3759 ed fd fe sbc $fefd
375c f5 ca    sbc $ca,x
375e cb       ???
375f d2       ???
3760 d3       ???
3761 ce cf d6 dec $d6cf
3764 d7       ???
3765 c9 d9    cmp #$d9
3767 da       ???
3768 db       ???
3769 cd dd de cmp $dedd
376c d5 ea    cmp $ea,x
376e eb       ???
376f f2       ???
3770 f3       ???
3771 ee ef f6 inc $f6ef
3774 f7       ???
3775 e9 f9    sbc #$f9
3777 fa       ???
3778 fb       ???
3779 ed fd fe sbc $fefd
377c f5 2a    sbc $2a,x
377e 2b       ???
377f 32       ???
3780 33       ???
3781 2e 2f 36 rol $362f
3784 37       ???
3785 29 39    and #$39
3787 3a       ???
3788 3b       ???
3789 2d 3d 3e and $3e3d
378c 35 2a    and $2a,x
378e 2b       ???
378f 32       ???
3790 33       ???
3791 2e 2f 36 rol $362f
3794 37       ???
3795 29 39    and #$39
3797 3a       ???
3798 3b       ???
3799 2d 3d 3e and $3e3d
379c 35 4a    and $4a,x
379e 4b       ???
379f 52       ???
37a0 53       ???
37a1 4e 4f 56 lsr $564f
37a4 57       ???
37a5 49 59    eor #$59
37a7 5a       ???
37a8 5b       ???
37a9 4d 5d 5e eor $5e5d
37ac 55 6a    eor $6a,x
37ae 6b       ???
37af 72       ???
37b0 73       ???
37b1 6e 6f 76 ror $766f
37b4 77       ???
37b5 69 79    adc #$79
37b7 7a       ???
37b8 7b       ???
37b9 6d 7d 7e adc $7e7d
37bc 75 aa    adc $aa,x
37be ab       ???
37bf b2       ???
37c0 b3       ???
37c1 ae af b6 ldx $b6af
37c4 b7       ???
37c5 a9 b9    lda #$b9
37c7 ba       tsx 
37c8 bb       ???
37c9 ad bd be lda $bebd
37cc b5 aa    lda $aa,x
37ce ab       ???
37cf b2       ???
37d0 b3       ???
37d1 ae af b6 ldx $b6af
37d4 b7       ???
37d5 a9 b9    lda #$b9
37d7 ba       tsx 
37d8 bb       ???
37d9 ad bd be lda $bebd
37dc b5 ca    lda $ca,x
37de cb       ???
37df d2       ???
37e0 d3       ???
37e1 ce cf d6 dec $d6cf
37e4 d7       ???
37e5 c9 d9    cmp #$d9
37e7 da       ???
37e8 db       ???
37e9 cd dd de cmp $dedd
37ec d5 aa    cmp $aa,x
37ee ab       ???
37ef b2       ???
37f0 b3       ???
37f1 ae af b6 ldx $b6af
37f4 b7       ???
37f5 a9 b9    lda #$b9
37f7 ba       tsx 
37f8 bb       ???
37f9 ad bd be lda $bebd
37fc b5 00    lda $00,x
37fe 65 10    adc $10
3800 06 0c    asl $0c
3802 0a       asl a
3803 1a       ???
3804 16 69    asl $69,x
3806 7f       ???
3807 7a       ???
3808 1c       ???
3809 63       ???
380a 17       ???
380b 17       ???
380c 19 2d 4b ora $4b2d,y
380f 4f       ???
3810 4d 3a 2b eor $2b3a
3813 25 ff    and $ff
3815 ff       ???
3816 ff       ???
3817 ff       ???
3818 ff       ???
3819 ff       ???
381a ff       ???
381b ff       ???
381c ff       ???
381d ff       ???
381e ff       ???
381f ff       ???
3820 ff       ???
3821 ff       ???
3822 ff       ???
3823 ff       ???
3824 ff       ???
3825 ff       ???
3826 ff       ???
3827 ff       ???
3828 ff       ???
3829 ff       ???
382a ff       ???
382b ff       ???
382c ff       ???
382d ff       ???
382e ff       ???
382f ff       ???
3830 ff       ???
3831 ff       ???
3832 ff       ???
3833 ff       ???
3834 ff       ???
3835 ff       ???
3836 ff       ???
3837 ff       ???
3838 ff       ???
3839 ff       ???
383a ff       ???
383b ff       ???
383c ff       ???
383d ff       ???
383e ff       ???
383f ff       ???
3840 ff       ???
3841 ff       ???
3842 ff       ???
3843 ff       ???
3844 ff       ???
3845 80       ???
3846 80       ???
3847 80       ???
3848 80       ???
3849 80       ???
384a 80       ???
384b 80       ???
384c 80       ???
384d 00       brk 
384e 00       brk 
384f 00       brk 
3850 00       brk 
3851 00       brk 
3852 00       brk 
3853 00       brk 
3854 00       brk 
3855 10 10    bpl $3867
3857 10 10    bpl $3869
3859 10 10    bpl $386b
385b 10 10    bpl $386d
385d ff       ???
385e ff       ???
385f ff       ???
3860 ff       ???
3861 ff       ???
3862 ff       ???
3863 ff       ???
3864 ff       ???
3865 c0 c0    cpy #$c0
3867 c0 c0    cpy #$c0
3869 c0 c0    cpy #$c0
386b c0 c0    cpy #$c0
386d 40       rti 
386e 40       rti 
386f 40       rti 
3870 40       rti 
3871 40       rti 
3872 40       rti 
3873 40       rti 
3874 40       rti 
3875 50 50    bvc $38c7
3877 50 50    bvc $38c9
3879 50 50    bvc $38cb
387b 50 50    bvc $38cd
387d ff       ???
387e ff       ???
387f ff       ???
3880 ff       ???
3881 ff       ???
3882 ff       ???
3883 ff       ???
3884 ff       ???
3885 ff       ???
3886 ff       ???
3887 ff       ???
3888 ff       ???
3889 ff       ???
388a ff       ???
388b ff       ???
388c ff       ???
388d 20 20 20 jsr $2020
3890 20 20 20 jsr $2020
3893 20 20 30 jsr $3020
3896 30 30    bmi $38c8
3898 30 30    bmi $38ca
389a 30 30    bmi $38cc
389c 30 ff    bmi $389d
389e ff       ???
389f ff       ???
38a0 ff       ???
38a1 ff       ???
38a2 ff       ???
38a3 ff       ???
38a4 ff       ???
38a5 f0 f0    beq $3897
38a7 f0 f0    beq $3899
38a9 f0 f0    beq $389b
38ab f0 f0    beq $389d
38ad 60       rts 
38ae 60       rts 
38af 60       rts 
38b0 60       rts 
38b1 60       rts 
38b2 60       rts 
38b3 60       rts 
38b4 60       rts 
38b5 70 70    bvs $3927
38b7 70 70    bvs $3929
38b9 70 70    bvs $392b
38bb 70 70    bvs $392d
38bd ff       ???
38be ff       ???
38bf ff       ???
38c0 ff       ???
38c1 ff       ???
38c2 ff       ???
38c3 ff       ???
38c4 ff       ???
38c5 90 90    bcc $3857
38c7 90 90    bcc $3859
38c9 90 90    bcc $385b
38cb 90 90    bcc $385d
38cd a0 a0    ldy #$a0
38cf a0 a0    ldy #$a0
38d1 a0 a0    ldy #$a0
38d3 a0 a0    ldy #$a0
38d5 b0 b0    bcs $3887
38d7 b0 b0    bcs $3889
38d9 b0 b0    bcs $388b
38db b0 b0    bcs $388d
38dd ff       ???
38de ff       ???
38df ff       ???
38e0 ff       ???
38e1 ff       ???
38e2 ff       ???
38e3 ff       ???
38e4 ff       ???
38e5 d0 d0    bne $38b7
38e7 d0 d0    bne $38b9
38e9 d0 d0    bne $38bb
38eb d0 d0    bne $38bd
38ed e0 e0    cpx #$e0
38ef e0 e0    cpx #$e0
38f1 e0 e0    cpx #$e0
38f3 e0 e0    cpx #$e0
38f5 ff       ???
38f6 ff       ???
38f7 ff       ???
38f8 ff       ???
38f9 ff       ???
38fa ff       ???
38fb ff       ???
38fc ff       ???
38fd ff       ???
38fe ff       ???
38ff ff       ???
3900 ff       ???
3901 ff       ???
3902 ff       ???
3903 ff       ???
3904 ff       ???
3905 ff       ???
3906 80       ???
3907 00       brk 
3908 10 3e    bpl $3948
390a c0 40    cpy #$40
390c 50 ff    bvc $390d
390e ff       ???
390f 20 30 ff jsr $ff30
3912 f0 60    beq $3974
3914 70 ff    bvs $3915
3916 90 a0    bcc $38b8
3918 b0 ff    bcs $3919
391a d0 e0    bne $38fc
391c ff       ???
391d ff       ???
391e ff       ???
391f ff       ???
3920 ff       ???
3921 ff       ???
3922 ff       ???
3923 ff       ???
3924 ff       ???
3925 ff       ???
3926 80       ???
3927 00       brk 
3928 10 2e    bpl $3958
392a c0 40    cpy #$40
392c 50 ff    bvc $392d
392e ff       ???
392f 20 30 ff jsr $ff30
3932 f0 60    beq $3994
3934 70 ff    bvs $3935
3936 90 a0    bcc $38d8
3938 b0 ff    bcs $3939
393a d0 e0    bne $391c
393c ff       ???
393d ff       ???
393e ff       ???
393f ff       ???
3940 ff       ???
3941 ff       ???
3942 ff       ???
3943 ff       ???
3944 ff       ???
3945 ff       ???
3946 80       ???
3947 00       brk 
3948 10 39    bpl $3983
394a c0 40    cpy #$40
394c 50 ff    bvc $394d
394e ff       ???
394f 20 30 ff jsr $ff30
3952 f0 60    beq $39b4
3954 70 ff    bvs $3955
3956 90 a0    bcc $38f8
3958 b0 ff    bcs $3959
395a d0 e0    bne $393c
395c ff       ???
395d ff       ???
395e ff       ???
395f ff       ???
3960 ff       ???
3961 ff       ???
3962 ff       ???
3963 ff       ???
3964 ff       ???
3965 ff       ???
3966 80       ???
3967 00       brk 
3968 10 52    bpl $39bc
396a c0 40    cpy #$40
396c 50 ff    bvc $396d
396e ff       ???
396f 20 30 ff jsr $ff30
3972 f0 60    beq $39d4
3974 70 ff    bvs $3975
3976 90 a0    bcc $3918
3978 b0 ff    bcs $3979
397a d0 e0    bne $395c
397c ff       ???
397d ff       ???
397e ff       ???
397f ff       ???
3980 ff       ???
3981 ff       ???
3982 ff       ???
3983 ff       ???
3984 ff       ???
3985 ff       ???
3986 80       ???
3987 00       brk 
3988 10 5c    bpl $39e6
398a c0 40    cpy #$40
398c 50 ff    bvc $398d
398e ff       ???
398f 20 30 ff jsr $ff30
3992 f0 60    beq $39f4
3994 70 ff    bvs $3995
3996 90 a0    bcc $3938
3998 b0 ff    bcs $3999
399a d0 e0    bne $397c
399c ff       ???
399d ff       ???
399e ff       ???
399f ff       ???
39a0 ff       ???
39a1 ff       ???
39a2 ff       ???
39a3 ff       ???
39a4 ff       ???
39a5 ff       ???
39a6 80       ???
39a7 00       brk 
39a8 10 12    bpl $39bc
39aa c0 40    cpy #$40
39ac 50 ff    bvc $39ad
39ae ff       ???
39af 20 30 ff jsr $ff30
39b2 f0 60    beq $3a14
39b4 70 ff    bvs $39b5
39b6 90 a0    bcc $3958
39b8 b0 ff    bcs $39b9
39ba d0 e0    bne $399c
39bc ff       ???
39bd ff       ???
39be ff       ???
39bf ff       ???
39c0 ff       ???
39c1 ff       ???
39c2 ff       ???
39c3 ff       ???
39c4 ff       ???
39c5 ff       ???
39c6 80       ???
39c7 00       brk 
39c8 10 20    bpl $39ea
39ca c0 40    cpy #$40
39cc 50 ff    bvc $39cd
39ce ff       ???
39cf 20 30 ff jsr $ff30
39d2 f0 60    beq $3a34
39d4 70 ff    bvs $39d5
39d6 90 a0    bcc $3978
39d8 b0 ff    bcs $39d9
39da d0 e0    bne $39bc
39dc ff       ???
39dd ff       ???
39de ff       ???
39df ff       ???
39e0 ff       ???
39e1 ff       ???
39e2 ff       ???
39e3 ff       ???
39e4 ff       ???
39e5 ff       ???
39e6 80       ???
39e7 00       brk 
39e8 10 60    bpl $3a4a
39ea c0 40    cpy #$40
39ec 50 ff    bvc $39ed
39ee ff       ???
39ef 20 30 ff jsr $ff30
39f2 f0 60    beq $3a54
39f4 70 ff    bvs $39f5
39f6 90 a0    bcc $3998
39f8 b0 ff    bcs $39f9
39fa d0 e0    bne $39dc
39fc ff       ???
39fd ff       ???
39fe ff       ???
39ff ff       ???
3a00 ff       ???
3a01 ff       ???
3a02 ff       ???
3a03 ff       ???
3a04 ff       ???
3a05 ff       ???
3a06 ff       ???
3a07 ff       ???
3a08 ff       ???
3a09 ff       ???
3a0a ff       ???
3a0b ff       ???
3a0c ff       ???
3a0d ff       ???
3a0e ff       ???
3a0f ff       ???
3a10 ff       ???
3a11 ff       ???
3a12 ff       ???
3a13 ff       ???
3a14 ff       ???
3a15 ff       ???
3a16 ff       ???
3a17 ff       ???
3a18 ff       ???
3a19 ff       ???
3a1a ff       ???
3a1b ff       ???
3a1c ff       ???
3a1d ff       ???
3a1e ff       ???
3a1f ff       ???
3a20 ff       ???
3a21 ff       ???
3a22 ff       ???
3a23 ff       ???
3a24 ff       ???
3a25 ff       ???
3a26 ff       ???
3a27 ff       ???
3a28 ff       ???
3a29 ff       ???
3a2a ff       ???
3a2b ff       ???
3a2c ff       ???
3a2d ff       ???
3a2e ff       ???
3a2f ff       ???
3a30 ff       ???
3a31 ff       ???
3a32 ff       ???
3a33 ff       ???
3a34 ff       ???
3a35 ff       ???
3a36 ff       ???
3a37 ff       ???
3a38 ff       ???
3a39 ff       ???
3a3a ff       ???
3a3b ff       ???
3a3c ff       ???
3a3d ff       ???
3a3e ff       ???
3a3f ff       ???
3a40 ff       ???
3a41 ff       ???
3a42 ff       ???
3a43 ff       ???
3a44 ff       ???
3a45 08       php 
3a46 08       php 
3a47 08       php 
3a48 08       php 
3a49 08       php 
3a4a 08       php 
3a4b 08       php 
3a4c 08       php 
3a4d 00       brk 
3a4e 00       brk 
3a4f 00       brk 
3a50 00       brk 
3a51 00       brk 
3a52 00       brk 
3a53 00       brk 
3a54 00       brk 
3a55 01 01    ora ($01,x)
3a57 01 01    ora ($01,x)
3a59 01 01    ora ($01,x)
3a5b 01 01    ora ($01,x)
3a5d ff       ???
3a5e ff       ???
3a5f ff       ???
3a60 ff       ???
3a61 ff       ???
3a62 ff       ???
3a63 ff       ???
3a64 ff       ???
3a65 0c       ???
3a66 0c       ???
3a67 0c       ???
3a68 0c       ???
3a69 0c       ???
3a6a 0c       ???
3a6b 0c       ???
3a6c 0c       ???
3a6d 04       ???
3a6e 04       ???
3a6f 04       ???
3a70 04       ???
3a71 04       ???
3a72 04       ???
3a73 04       ???
3a74 04       ???
3a75 05 05    ora $05
3a77 05 05    ora $05
3a79 05 05    ora $05
3a7b 05 05    ora $05
3a7d ff       ???
3a7e ff       ???
3a7f ff       ???
3a80 ff       ???
3a81 ff       ???
3a82 ff       ???
3a83 ff       ???
3a84 ff       ???
3a85 ff       ???
3a86 ff       ???
3a87 ff       ???
3a88 ff       ???
3a89 ff       ???
3a8a ff       ???
3a8b ff       ???
3a8c ff       ???
3a8d 02       ???
3a8e 02       ???
3a8f 02       ???
3a90 02       ???
3a91 02       ???
3a92 02       ???
3a93 02       ???
3a94 02       ???
3a95 03       ???
3a96 03       ???
3a97 03       ???
3a98 03       ???
3a99 03       ???
3a9a 03       ???
3a9b 03       ???
3a9c 03       ???
3a9d ff       ???
3a9e ff       ???
3a9f ff       ???
3aa0 ff       ???
3aa1 ff       ???
3aa2 ff       ???
3aa3 ff       ???
3aa4 ff       ???
3aa5 0f       ???
3aa6 0f       ???
3aa7 0f       ???
3aa8 0f       ???
3aa9 0f       ???
3aaa 0f       ???
3aab 0f       ???
3aac 0f       ???
3aad 06 06    asl $06
3aaf 06 06    asl $06
3ab1 06 06    asl $06
3ab3 06 06    asl $06
3ab5 07       ???
3ab6 07       ???
3ab7 07       ???
3ab8 07       ???
3ab9 07       ???
3aba 07       ???
3abb 07       ???
3abc 07       ???
3abd ff       ???
3abe ff       ???
3abf ff       ???
3ac0 ff       ???
3ac1 ff       ???
3ac2 ff       ???
3ac3 ff       ???
3ac4 ff       ???
3ac5 09 09    ora #$09
3ac7 09 09    ora #$09
3ac9 09 09    ora #$09
3acb 09 09    ora #$09
3acd 0a       asl a
3ace 0a       asl a
3acf 0a       asl a
3ad0 0a       asl a
3ad1 0a       asl a
3ad2 0a       asl a
3ad3 0a       asl a
3ad4 0a       asl a
3ad5 0b       ???
3ad6 0b       ???
3ad7 0b       ???
3ad8 0b       ???
3ad9 0b       ???
3ada 0b       ???
3adb 0b       ???
3adc 0b       ???
3add ff       ???
3ade ff       ???
3adf ff       ???
3ae0 ff       ???
3ae1 ff       ???
3ae2 ff       ???
3ae3 ff       ???
3ae4 ff       ???
3ae5 0d 0d 0d ora $0d0d
3ae8 0d 0d 0d ora $0d0d
3aeb 0d 0d 0e ora $0e0d
3aee 0e 0e 0e asl $0e0e
3af1 0e 0e 0e asl $0e0e
3af4 0e ff ff asl $ffff
3af7 ff       ???
3af8 ff       ???
3af9 ff       ???
3afa ff       ???
3afb ff       ???
3afc ff       ???
3afd ff       ???
3afe ff       ???
3aff ff       ???
3b00 ff       ???
3b01 ff       ???
3b02 ff       ???
3b03 ff       ???
3b04 ff       ???
3b05 ff       ???
3b06 ff       ???
3b07 ff       ???
3b08 ff       ???
3b09 ff       ???
3b0a ff       ???
3b0b ff       ???
3b0c ff       ???
3b0d ff       ???
3b0e ff       ???
3b0f ff       ???
3b10 ff       ???
3b11 ff       ???
3b12 ff       ???
3b13 ff       ???
3b14 ff       ???
3b15 ff       ???
3b16 ff       ???
3b17 ff       ???
3b18 ff       ???
3b19 ff       ???
3b1a ff       ???
3b1b ff       ???
3b1c ff       ???
3b1d ff       ???
3b1e ff       ???
3b1f 80       ???
3b20 80       ???
3b21 ff       ???
3b22 ff       ???
3b23 90 90    bcc $3ab5
3b25 ff       ???
3b26 ff       ???
3b27 80       ???
3b28 80       ???
3b29 ff       ???
3b2a ff       ???
3b2b 90 90    bcc $3abd
3b2d ff       ???
3b2e ff       ???
3b2f 80       ???
3b30 80       ???
3b31 ff       ???
3b32 ff       ???
3b33 90 90    bcc $3ac5
3b35 ff       ???
3b36 ff       ???
3b37 80       ???
3b38 80       ???
3b39 ff       ???
3b3a ff       ???
3b3b 90 90    bcc $3acd
3b3d ff       ???
3b3e ff       ???
3b3f 00       brk 
3b40 00       brk 
3b41 20 20 a0 jsr $a020
3b44 a0 ff    ldy #$ff
3b46 ff       ???
3b47 00       brk 
3b48 00       brk 
3b49 20 20 a0 jsr $a020
3b4c a0 ff    ldy #$ff
3b4e ff       ???
3b4f 00       brk 
3b50 00       brk 
3b51 20 20 a0 jsr $a020
3b54 a0 ff    ldy #$ff
3b56 ff       ???
3b57 00       brk 
3b58 00       brk 
3b59 20 20 a0 jsr $a020
3b5c a0 ff    ldy #$ff
3b5e ff       ???
3b5f 10 10    bpl $3b71
3b61 30 30    bmi $3b93
3b63 b0 b0    bcs $3b15
3b65 ff       ???
3b66 ff       ???
3b67 10 10    bpl $3b79
3b69 30 30    bmi $3b9b
3b6b b0 b0    bcs $3b1d
3b6d ff       ???
3b6e ff       ???
3b6f 10 10    bpl $3b81
3b71 30 30    bmi $3ba3
3b73 b0 b0    bcs $3b25
3b75 ff       ???
3b76 ff       ???
3b77 10 10    bpl $3b89
3b79 30 30    bmi $3bab
3b7b b0 b0    bcs $3b2d
3b7d ff       ???
3b7e ff       ???
3b7f ff       ???
3b80 ff       ???
3b81 ff       ???
3b82 ff       ???
3b83 ff       ???
3b84 ff       ???
3b85 ff       ???
3b86 ff       ???
3b87 ff       ???
3b88 ff       ???
3b89 ff       ???
3b8a ff       ???
3b8b ff       ???
3b8c ff       ???
3b8d ff       ???
3b8e ff       ???
3b8f ff       ???
3b90 ff       ???
3b91 ff       ???
3b92 ff       ???
3b93 ff       ???
3b94 ff       ???
3b95 ff       ???
3b96 ff       ???
3b97 ff       ???
3b98 ff       ???
3b99 ff       ???
3b9a ff       ???
3b9b ff       ???
3b9c ff       ???
3b9d ff       ???
3b9e ff       ???
3b9f c0 c0    cpy #$c0
3ba1 f0 f0    beq $3b93
3ba3 d0 d0    bne $3b75
3ba5 ff       ???
3ba6 ff       ???
3ba7 c0 c0    cpy #$c0
3ba9 f0 f0    beq $3b9b
3bab d0 d0    bne $3b7d
3bad ff       ???
3bae ff       ???
3baf c0 c0    cpy #$c0
3bb1 f0 f0    beq $3ba3
3bb3 d0 d0    bne $3b85
3bb5 ff       ???
3bb6 ff       ???
3bb7 c0 c0    cpy #$c0
3bb9 f0 f0    beq $3bab
3bbb d0 d0    bne $3b8d
3bbd ff       ???
3bbe ff       ???
3bbf 40       rti 
3bc0 40       rti 
3bc1 60       rts 
3bc2 60       rts 
3bc3 e0 e0    cpx #$e0
3bc5 ff       ???
3bc6 ff       ???
3bc7 40       rti 
3bc8 40       rti 
3bc9 60       rts 
3bca 60       rts 
3bcb e0 e0    cpx #$e0
3bcd ff       ???
3bce ff       ???
3bcf 40       rti 
3bd0 40       rti 
3bd1 60       rts 
3bd2 60       rts 
3bd3 e0 e0    cpx #$e0
3bd5 ff       ???
3bd6 ff       ???
3bd7 40       rti 
3bd8 40       rti 
3bd9 60       rts 
3bda 60       rts 
3bdb e0 e0    cpx #$e0
3bdd ff       ???
3bde ff       ???
3bdf 50 50    bvc $3c31
3be1 70 70    bvs $3c53
3be3 ff       ???
3be4 ff       ???
3be5 ff       ???
3be6 ff       ???
3be7 50 50    bvc $3c39
3be9 70 70    bvs $3c5b
3beb ff       ???
3bec ff       ???
3bed ff       ???
3bee ff       ???
3bef 50 50    bvc $3c41
3bf1 70 70    bvs $3c63
3bf3 ff       ???
3bf4 ff       ???
3bf5 ff       ???
3bf6 ff       ???
3bf7 50 50    bvc $3c49
3bf9 70 70    bvs $3c6b
3bfb ff       ???
3bfc ff       ???
3bfd ff       ???
3bfe ff       ???
3bff ff       ???
3c00 ff       ???
3c01 ff       ???
3c02 ff       ???
3c03 ff       ???
3c04 ff       ???
3c05 ff       ???
3c06 08       php 
3c07 00       brk 
3c08 01 ff    ora ($ff,x)
3c0a 0c       ???
3c0b 04       ???
3c0c 05 ff    ora $ff
3c0e ff       ???
3c0f 02       ???
3c10 03       ???
3c11 ff       ???
3c12 0f       ???
3c13 06 07    asl $07
3c15 ff       ???
3c16 09 0a    ora #$0a
3c18 0b       ???
3c19 ff       ???
3c1a 0d 0e ff ora $ff0e
3c1d ff       ???
3c1e ff       ???
3c1f ff       ???
3c20 ff       ???
3c21 ff       ???
3c22 ff       ???
3c23 ff       ???
3c24 ff       ???
3c25 ff       ???
3c26 08       php 
3c27 00       brk 
3c28 01 ff    ora ($ff,x)
3c2a 0c       ???
3c2b 04       ???
3c2c 05 ff    ora $ff
3c2e ff       ???
3c2f 02       ???
3c30 03       ???
3c31 ff       ???
3c32 0f       ???
3c33 06 07    asl $07
3c35 ff       ???
3c36 09 0a    ora #$0a
3c38 0b       ???
3c39 ff       ???
3c3a 0d 0e ff ora $ff0e
3c3d ff       ???
3c3e ff       ???
3c3f ff       ???
3c40 ff       ???
3c41 ff       ???
3c42 ff       ???
3c43 ff       ???
3c44 ff       ???
3c45 ff       ???
3c46 08       php 
3c47 00       brk 
3c48 01 ff    ora ($ff,x)
3c4a 0c       ???
3c4b 04       ???
3c4c 05 ff    ora $ff
3c4e ff       ???
3c4f 02       ???
3c50 03       ???
3c51 ff       ???
3c52 0f       ???
3c53 06 07    asl $07
3c55 ff       ???
3c56 09 0a    ora #$0a
3c58 0b       ???
3c59 ff       ???
3c5a 0d 0e ff ora $ff0e
3c5d ff       ???
3c5e ff       ???
3c5f ff       ???
3c60 ff       ???
3c61 ff       ???
3c62 ff       ???
3c63 ff       ???
3c64 ff       ???
3c65 ff       ???
3c66 08       php 
3c67 00       brk 
3c68 01 ff    ora ($ff,x)
3c6a 0c       ???
3c6b 04       ???
3c6c 05 ff    ora $ff
3c6e ff       ???
3c6f 02       ???
3c70 03       ???
3c71 ff       ???
3c72 0f       ???
3c73 06 07    asl $07
3c75 ff       ???
3c76 09 0a    ora #$0a
3c78 0b       ???
3c79 ff       ???
3c7a 0d 0e ff ora $ff0e
3c7d ff       ???
3c7e ff       ???
3c7f ff       ???
3c80 ff       ???
3c81 ff       ???
3c82 ff       ???
3c83 ff       ???
3c84 ff       ???
3c85 ff       ???
3c86 08       php 
3c87 00       brk 
3c88 01 ff    ora ($ff,x)
3c8a 0c       ???
3c8b 04       ???
3c8c 05 ff    ora $ff
3c8e ff       ???
3c8f 02       ???
3c90 03       ???
3c91 ff       ???
3c92 0f       ???
3c93 06 07    asl $07
3c95 ff       ???
3c96 09 0a    ora #$0a
3c98 0b       ???
3c99 ff       ???
3c9a 0d 0e ff ora $ff0e
3c9d ff       ???
3c9e ff       ???
3c9f ff       ???
3ca0 ff       ???
3ca1 ff       ???
3ca2 ff       ???
3ca3 ff       ???
3ca4 ff       ???
3ca5 ff       ???
3ca6 08       php 
3ca7 00       brk 
3ca8 01 ff    ora ($ff,x)
3caa 0c       ???
3cab 04       ???
3cac 05 ff    ora $ff
3cae ff       ???
3caf 02       ???
3cb0 03       ???
3cb1 ff       ???
3cb2 0f       ???
3cb3 06 07    asl $07
3cb5 ff       ???
3cb6 09 0a    ora #$0a
3cb8 0b       ???
3cb9 ff       ???
3cba 0d 0e ff ora $ff0e
3cbd ff       ???
3cbe ff       ???
3cbf ff       ???
3cc0 ff       ???
3cc1 ff       ???
3cc2 ff       ???
3cc3 ff       ???
3cc4 ff       ???
3cc5 ff       ???
3cc6 08       php 
3cc7 00       brk 
3cc8 01 ff    ora ($ff,x)
3cca 0c       ???
3ccb 04       ???
3ccc 05 ff    ora $ff
3cce ff       ???
3ccf 02       ???
3cd0 03       ???
3cd1 ff       ???
3cd2 0f       ???
3cd3 06 07    asl $07
3cd5 ff       ???
3cd6 09 0a    ora #$0a
3cd8 0b       ???
3cd9 ff       ???
3cda 0d 0e ff ora $ff0e
3cdd ff       ???
3cde ff       ???
3cdf ff       ???
3ce0 ff       ???
3ce1 ff       ???
3ce2 ff       ???
3ce3 ff       ???
3ce4 ff       ???
3ce5 ff       ???
3ce6 08       php 
3ce7 00       brk 
3ce8 01 ff    ora ($ff,x)
3cea 0c       ???
3ceb 04       ???
3cec 05 ff    ora $ff
3cee ff       ???
3cef 02       ???
3cf0 03       ???
3cf1 ff       ???
3cf2 0f       ???
3cf3 06 07    asl $07
3cf5 ff       ???
3cf6 09 0a    ora #$0a
3cf8 0b       ???
3cf9 ff       ???
3cfa 0d 0e ff ora $ff0e
3cfd ff       ???
3cfe ff       ???
3cff ff       ???
3d00 ff       ???
3d01 ff       ???
3d02 ff       ???
3d03 ff       ???
3d04 ff       ???
3d05 ff       ???
3d06 ff       ???
3d07 ff       ???
3d08 ff       ???
3d09 ff       ???
3d0a ff       ???
3d0b ff       ???
3d0c ff       ???
3d0d ff       ???
3d0e ff       ???
3d0f ff       ???
3d10 ff       ???
3d11 ff       ???
3d12 ff       ???
3d13 ff       ???
3d14 ff       ???
3d15 ff       ???
3d16 ff       ???
3d17 ff       ???
3d18 ff       ???
3d19 ff       ???
3d1a ff       ???
3d1b ff       ???
3d1c ff       ???
3d1d ff       ???
3d1e ff       ???
3d1f 08       php 
3d20 0c       ???
3d21 ff       ???
3d22 0f       ???
3d23 09 0d    ora #$0d
3d25 ff       ???
3d26 ff       ???
3d27 08       php 
3d28 0c       ???
3d29 ff       ???
3d2a 0f       ???
3d2b 09 0d    ora #$0d
3d2d ff       ???
3d2e ff       ???
3d2f 08       php 
3d30 0c       ???
3d31 ff       ???
3d32 0f       ???
3d33 09 0d    ora #$0d
3d35 ff       ???
3d36 ff       ???
3d37 08       php 
3d38 0c       ???
3d39 ff       ???
3d3a 0f       ???
3d3b 09 0d    ora #$0d
3d3d ff       ???
3d3e ff       ???
3d3f 00       brk 
3d40 04       ???
3d41 02       ???
3d42 06 0a    asl $0a
3d44 0e ff ff asl $ffff
3d47 00       brk 
3d48 04       ???
3d49 02       ???
3d4a 06 0a    asl $0a
3d4c 0e ff ff asl $ffff
3d4f 00       brk 
3d50 04       ???
3d51 02       ???
3d52 06 0a    asl $0a
3d54 0e ff ff asl $ffff
3d57 00       brk 
3d58 04       ???
3d59 02       ???
3d5a 06 0a    asl $0a
3d5c 0e ff ff asl $ffff
3d5f 01 05    ora ($05,x)
3d61 03       ???
3d62 07       ???
3d63 0b       ???
3d64 ff       ???
3d65 ff       ???
3d66 ff       ???
3d67 01 05    ora ($05,x)
3d69 03       ???
3d6a 07       ???
3d6b 0b       ???
3d6c ff       ???
3d6d ff       ???
3d6e ff       ???
3d6f 01 05    ora ($05,x)
3d71 03       ???
3d72 07       ???
3d73 0b       ???
3d74 ff       ???
3d75 ff       ???
3d76 ff       ???
3d77 01 05    ora ($05,x)
3d79 03       ???
3d7a 07       ???
3d7b 0b       ???
3d7c ff       ???
3d7d 00       brk 
3d7e 7a       ???
3d7f 2a       rol a
3d80 7a       ???
3d81 54       ???
3d82 7a       ???
3d83 7e 7a a8 ror $a87a,x
3d86 7a       ???
3d87 d2       ???
3d88 7a       ???
3d89 fc       ???
3d8a 7a       ???
3d8b 26 7b    rol $7b
3d8d 50 7b    bvc $3e0a
3d8f 7a       ???
3d90 7b       ???
3d91 a4 7b    ldy $7b
3d93 ce 7b f8 dec $f87b
3d96 7b       ???
3d97 22       ???
3d98 7c       ???
3d99 4c 7c 76 jmp $767c
3d9c 7c       ???
3d9d a0 7c    ldy #$7c
3d9f ca       dex 
3da0 7c       ???
3da1 f0 7c    beq $3e1f
3da3 16 7d    asl $7d,x
3da5 3c       ???
3da6 7d 62 7d adc $7d62,x
3da9 88       dey 
3daa 7d ae 7d adc $7dae,x
3dad d4       ???
3dae 7d f8 7d adc $7df8,x
3db1 1c       ???
3db2 7e 40 7e ror $7e40,x
3db5 64       ???
3db6 7e 88 7e ror $7e88,x
3db9 ac 7e ce ldy $ce7e
3dbc 7e f0 7e ror $7ef0,x
3dbf 12       ???
3dc0 7f       ???
3dc1 34       ???
3dc2 7f       ???
3dc3 56 7f    lsr $7f,x
3dc5 78       sei 
3dc6 7f       ???
3dc7 9a       txs 
3dc8 7f       ???
3dc9 bc 7f de ldy $de7f,x
3dcc 7f       ???
3dcd 00       brk 
3dce 61 45    adc ($45,x)
3dd0 62       ???
3dd1 8a       txa 
3dd2 63       ???
3dd3 cf       ???
3dd4 64       ???
3dd5 14       ???
3dd6 66 59    ror $59
3dd8 67       ???
3dd9 9e       ???
3dda 68       pla 
3ddb e3       ???
3ddc 69 28    adc #$28
3dde 6b       ???
3ddf 6d 6c b2 adc $b26c
3de2 6d f7 6e adc $6ef7
3de5 3c       ???
3de6 70 81    bvs $3d69
3de8 71 c6    adc ($c6),y
3dea 72       ???
3deb 0b       ???
3dec 74       ???
3ded 50 75    bvc $3e64
3def 95 76    sta $76,x
3df1 da       ???
3df2 77       ???
3df3 1f       ???
3df4 79 64 7a adc $7a64,y
3df7 ff       ???
3df8 ff       ???
3df9 ff       ???
3dfa ff       ???
3dfb ff       ???
3dfc ff       ???
3dfd ff       ???
3dfe ff       ???
3dff ff       ???
3e00 ff       ???
3e01 ff       ???
3e02 ff       ???
3e03 ff       ???
3e04 ff       ???
3e05 ff       ???
3e06 ff       ???
3e07 ff       ???
3e08 ff       ???
3e09 ff       ???
3e0a ff       ???
3e0b ff       ???
3e0c ff       ???
3e0d ff       ???
3e0e ff       ???
3e0f ff       ???
3e10 ff       ???
3e11 ff       ???
3e12 ff       ???
3e13 ff       ???
3e14 ff       ???
3e15 ff       ???
3e16 ff       ???
3e17 ff       ???
3e18 ff       ???
3e19 ff       ???
3e1a ff       ???
3e1b ff       ???
3e1c ff       ???
3e1d ff       ???
3e1e ff       ???
3e1f ff       ???
3e20 ff       ???
3e21 ff       ???
3e22 ff       ???
3e23 ff       ???
3e24 ff       ???
3e25 ff       ???
3e26 ff       ???
3e27 ff       ???
3e28 ff       ???
3e29 ff       ???
3e2a ff       ???
3e2b ff       ???
3e2c ff       ???
3e2d ff       ???
3e2e ff       ???
3e2f ff       ???
3e30 ff       ???
3e31 ff       ???
3e32 ff       ???
3e33 ff       ???
3e34 ff       ???
3e35 ff       ???
3e36 ff       ???
3e37 ff       ???
3e38 ff       ???
3e39 ff       ???
3e3a ff       ???
3e3b ff       ???
3e3c ff       ???
3e3d ff       ???
3e3e ff       ???
3e3f ff       ???
3e40 ff       ???
3e41 ff       ???
3e42 ff       ???
3e43 ff       ???
3e44 ff       ???
3e45 ff       ???
3e46 ff       ???
3e47 ff       ???
3e48 ff       ???
3e49 ff       ???
3e4a ff       ???
3e4b ff       ???
3e4c ff       ???
3e4d ff       ???
3e4e ff       ???
3e4f ff       ???
3e50 ff       ???
3e51 ff       ???
3e52 ff       ???
3e53 ff       ???
3e54 ff       ???
3e55 ff       ???
3e56 ff       ???
3e57 ff       ???
3e58 ff       ???
3e59 ff       ???
3e5a ff       ???
3e5b ff       ???
3e5c ff       ???
3e5d ff       ???
3e5e ff       ???
3e5f ff       ???
3e60 ff       ???
3e61 ff       ???
3e62 ff       ???
3e63 ff       ???
3e64 ff       ???
3e65 ff       ???
3e66 ff       ???
3e67 ff       ???
3e68 ff       ???
3e69 ff       ???
3e6a ff       ???
3e6b ff       ???
3e6c ff       ???
3e6d ff       ???
3e6e ff       ???
3e6f ff       ???
3e70 ff       ???
3e71 ff       ???
3e72 ff       ???
3e73 ff       ???
3e74 ff       ???
3e75 ff       ???
3e76 ff       ???
3e77 ff       ???
3e78 ff       ???
3e79 ff       ???
3e7a ff       ???
3e7b ff       ???
3e7c ff       ???
3e7d ff       ???
3e7e ff       ???
3e7f ff       ???
3e80 ff       ???
3e81 ff       ???
3e82 ff       ???
3e83 ff       ???
3e84 ff       ???
3e85 ff       ???
3e86 ff       ???
3e87 ff       ???
3e88 ff       ???
3e89 ff       ???
3e8a ff       ???
3e8b ff       ???
3e8c ff       ???
3e8d ff       ???
3e8e ff       ???
3e8f ff       ???
3e90 ff       ???
3e91 ff       ???
3e92 ff       ???
3e93 ff       ???
3e94 ff       ???
3e95 ff       ???
3e96 ff       ???
3e97 ff       ???
3e98 ff       ???
3e99 ff       ???
3e9a ff       ???
3e9b ff       ???
3e9c ff       ???
3e9d ff       ???
3e9e ff       ???
3e9f ff       ???
3ea0 ff       ???
3ea1 ff       ???
3ea2 ff       ???
3ea3 ff       ???
3ea4 ff       ???
3ea5 ff       ???
3ea6 ff       ???
3ea7 ff       ???
3ea8 ff       ???
3ea9 ff       ???
3eaa ff       ???
3eab ff       ???
3eac ff       ???
3ead ff       ???
3eae ff       ???
3eaf ff       ???
3eb0 ff       ???
3eb1 ff       ???
3eb2 ff       ???
3eb3 ff       ???
3eb4 ff       ???
3eb5 ff       ???
3eb6 ff       ???
3eb7 ff       ???
3eb8 ff       ???
3eb9 ff       ???
3eba ff       ???
3ebb ff       ???
3ebc ff       ???
3ebd ff       ???
3ebe ff       ???
3ebf ff       ???
3ec0 ff       ???
3ec1 ff       ???
3ec2 ff       ???
3ec3 ff       ???
3ec4 ff       ???
3ec5 ff       ???
3ec6 ff       ???
3ec7 ff       ???
3ec8 ff       ???
3ec9 ff       ???
3eca ff       ???
3ecb ff       ???
3ecc ff       ???
3ecd ff       ???
3ece ff       ???
3ecf ff       ???
3ed0 ff       ???
3ed1 ff       ???
3ed2 ff       ???
3ed3 ff       ???
3ed4 ff       ???
3ed5 ff       ???
3ed6 ff       ???
3ed7 ff       ???
3ed8 ff       ???
3ed9 ff       ???
3eda ff       ???
3edb ff       ???
3edc ff       ???
3edd ff       ???
3ede ff       ???
3edf ff       ???
3ee0 ff       ???
3ee1 ff       ???
3ee2 ff       ???
3ee3 ff       ???
3ee4 ff       ???
3ee5 ff       ???
3ee6 ff       ???
3ee7 ff       ???
3ee8 ff       ???
3ee9 ff       ???
3eea ff       ???
3eeb ff       ???
3eec ff       ???
3eed ff       ???
3eee ff       ???
3eef ff       ???
3ef0 ff       ???
3ef1 ff       ???
3ef2 ff       ???
3ef3 ff       ???
3ef4 ff       ???
3ef5 ff       ???
3ef6 ff       ???
3ef7 ff       ???
3ef8 ff       ???
3ef9 ff       ???
3efa ff       ???
3efb ff       ???
3efc ff       ???
3efd ff       ???
3efe ff       ???
3eff ff       ???
3f00 ff       ???
3f01 ff       ???
3f02 ff       ???
3f03 ff       ???
3f04 ff       ???
3f05 ff       ???
3f06 ff       ???
3f07 ff       ???
3f08 ff       ???
3f09 ff       ???
3f0a ff       ???
3f0b ff       ???
3f0c ff       ???
3f0d ff       ???
3f0e ff       ???
3f0f ff       ???
3f10 ff       ???
3f11 ff       ???
3f12 ff       ???
3f13 ff       ???
3f14 ff       ???
3f15 ff       ???
3f16 ff       ???
3f17 ff       ???
3f18 ff       ???
3f19 ff       ???
3f1a ff       ???
3f1b ff       ???
3f1c ff       ???
3f1d ff       ???
3f1e ff       ???
3f1f ff       ???
3f20 ff       ???
3f21 ff       ???
3f22 ff       ???
3f23 ff       ???
3f24 ff       ???
3f25 ff       ???
3f26 ff       ???
3f27 ff       ???
3f28 ff       ???
3f29 ff       ???
3f2a ff       ???
3f2b ff       ???
3f2c ff       ???
3f2d ff       ???
3f2e ff       ???
3f2f ff       ???
3f30 ff       ???
3f31 ff       ???
3f32 ff       ???
3f33 ff       ???
3f34 ff       ???
3f35 ff       ???
3f36 ff       ???
3f37 ff       ???
3f38 ff       ???
3f39 ff       ???
3f3a ff       ???
3f3b ff       ???
3f3c ff       ???
3f3d ff       ???
3f3e ff       ???
3f3f ff       ???
3f40 ff       ???
3f41 ff       ???
3f42 ff       ???
3f43 ff       ???
3f44 ff       ???
3f45 ff       ???
3f46 ff       ???
3f47 ff       ???
3f48 ff       ???
3f49 ff       ???
3f4a ff       ???
3f4b ff       ???
3f4c ff       ???
3f4d ff       ???
3f4e ff       ???
3f4f ff       ???
3f50 ff       ???
3f51 ff       ???
3f52 ff       ???
3f53 ff       ???
3f54 ff       ???
3f55 ff       ???
3f56 ff       ???
3f57 ff       ???
3f58 ff       ???
3f59 ff       ???
3f5a ff       ???
3f5b ff       ???
3f5c ff       ???
3f5d ff       ???
3f5e ff       ???
3f5f ff       ???
3f60 ff       ???
3f61 ff       ???
3f62 ff       ???
3f63 ff       ???
3f64 ff       ???
3f65 ff       ???
3f66 ff       ???
3f67 ff       ???
3f68 ff       ???
3f69 ff       ???
3f6a ff       ???
3f6b ff       ???
3f6c ff       ???
3f6d ff       ???
3f6e ff       ???
3f6f ff       ???
3f70 ff       ???
3f71 ff       ???
3f72 ff       ???
3f73 ff       ???
3f74 ff       ???
3f75 ff       ???
3f76 ff       ???
3f77 ff       ???
3f78 ff       ???
3f79 ff       ???
3f7a ff       ???
3f7b ff       ???
3f7c ff       ???
3f7d ff       ???
3f7e ff       ???
3f7f ff       ???
3f80 ff       ???
3f81 ff       ???
3f82 ff       ???
3f83 ff       ???
3f84 ff       ???
3f85 ff       ???
3f86 ff       ???
3f87 ff       ???
3f88 ff       ???
3f89 ff       ???
3f8a ff       ???
3f8b ff       ???
3f8c ff       ???
3f8d ff       ???
3f8e ff       ???
3f8f ff       ???
3f90 ff       ???
3f91 ff       ???
3f92 ff       ???
3f93 ff       ???
3f94 ff       ???
3f95 ff       ???
3f96 ff       ???
3f97 ff       ???
3f98 ff       ???
3f99 ff       ???
3f9a ff       ???
3f9b ff       ???
3f9c ff       ???
3f9d ff       ???
3f9e ff       ???
3f9f ff       ???
3fa0 ff       ???
3fa1 ff       ???
3fa2 ff       ???
3fa3 ff       ???
3fa4 ff       ???
3fa5 ff       ???
3fa6 ff       ???
3fa7 ff       ???
3fa8 ff       ???
3fa9 ff       ???
3faa ff       ???
3fab ff       ???
3fac ff       ???
3fad ff       ???
3fae ff       ???
3faf ff       ???
3fb0 ff       ???
3fb1 ff       ???
3fb2 ff       ???
3fb3 ff       ???
3fb4 ff       ???
3fb5 ff       ???
3fb6 ff       ???
3fb7 ff       ???
3fb8 ff       ???
3fb9 ff       ???
3fba ff       ???
3fbb ff       ???
3fbc ff       ???
3fbd ff       ???
3fbe ff       ???
3fbf ff       ???
3fc0 ff       ???
3fc1 ff       ???
3fc2 ff       ???
3fc3 ff       ???
3fc4 ff       ???
3fc5 ff       ???
3fc6 ff       ???
3fc7 ff       ???
3fc8 ff       ???
3fc9 ff       ???
3fca ff       ???
3fcb ff       ???
3fcc ff       ???
3fcd ff       ???
3fce ff       ???
3fcf ff       ???
3fd0 31 35    and ($35),y
3fd2 34       ???
3fd3 31 20    and ($20),y
3fd5 44       ???
3fd6 4f       ???
3fd7 4c 50 48 jmp $4850
3fda 49 4e    eor #$4e
3fdc 2d 44 4f and $4f44
3fdf 53       ???
3fe0 20 32 2e jsr $2e32
3fe3 30 20    bmi $4005
3fe5 52       ???
3fe6 4f       ???
3fe7 4d 20 57 eor $5720
3fea 49 54    eor #$54
3fec 48       pha 
3fed 20 52 41 jsr $4152
3ff0 4d 20 41 eor $4120
3ff3 54       ???
3ff4 20 24 36 jsr $3624
3ff7 30 30    bmi $4029
3ff9 30 0d    bmi $4008
3ffb 00       brk 
3ffc 0b       ???
3ffd 97       ???
3ffe 20 b7 dd jsr $ddb7
4001 90 2b    bcc $402e
4003 ad 00 02 lda $0200
4006 c9 53    cmp #$53
4008 f0 24    beq $402e
400a a0 00    ldy #$00
400c b1 94    lda ($94),y
400e 48       pha 
400f ae 01 02 ldx $0201
4012 e0 4c    cpx #$4c
4014 d0 09    bne $401f
4016 29 40    and #$40
4018 d0 12    bne $402c
401a 68       pla 
401b 09 40    ora #$40
401d d0 07    bne $4026
401f 29 40    and #$40
4021 f0 09    beq $402c
4023 68       pla 
4024 29 bf    and #$bf
4026 20 b9 c8 jsr $c8b9
4029 e6 86    inc $86
402b 24 68    bit $68
402d 18       clc 
402e 60       rts 
402f ad 00 60 lda $6000
4032 c9 12    cmp #$12
4034 d0 13    bne $4049
4036 20 5f ef jsr $ef5f
4039 4c 80 c8 jmp $c880
403c ad 00 60 lda $6000
403f c9 12    cmp #$12
4041 d0 06    bne $4049
4043 20 5f d5 jsr $d55f
4046 4c e8 ed jmp $ede8
4049 2c 09 60 bit $6009
404c 70 1b    bvs $4069
404e a2 29    ldx #$29
4050 a9 00    lda #$00
4052 9d d6 79 sta $79d6,x
4055 ca       dex 
4056 d0 fa    bne $4052
4058 86 86    stx $86
405a a9 40    lda #$40
405c 8d 09 60 sta $6009
405f a9 18    lda #$18
4061 8d 21 60 sta $6021
4064 a9 a0    lda #$a0
4066 8d 22 60 sta $6022
4069 ad 00 02 lda $0200
406c 48       pha 
406d a9 58    lda #$58
406f 8d 00 02 sta $0200
4072 a9 11    lda #$11
4074 85 83    sta $83
4076 a9 01    lda #$01
4078 8d 4a 02 sta $024a
407b 20 e2 d1 jsr $d1e2
407e 20 b6 dc jsr $dcb6
4081 a9 02    lda #$02
4083 05 7f    ora $7f
4085 95 ec    sta $ec,x
4087 a9 88    lda #$88
4089 95 f2    sta $f2,x
408b 20 19 f1 jsr $f119
408e b5 a7    lda $a7,x
4090 c9 ff    cmp #$ff
4092 f0 08    beq $409c
4094 ad f9 02 lda $02f9
4097 09 40    ora #$40
4099 8d f9 02 sta $02f9
409c 20 93 df jsr $df93
409f 85 85    sta $85
40a1 20 5f d5 jsr $d55f
40a4 68       pla 
40a5 48       pha 
40a6 c9 56    cmp #$56
40a8 d0 06    bne $40b0
40aa 20 90 ef jsr $ef90
40ad 4c b6 c0 jmp $c0b6
40b0 20 5f ef jsr $ef5f
40b3 a5 85    lda $85
40b5 0a       asl a
40b6 aa       tax 
40b7 a5 80    lda $80
40b9 95 06    sta $06,x
40bb aa       tax 
40bc bc d7 79 ldy $79d7,x
40bf d0 0e    bne $40cf
40c1 a6 85    ldx $85
40c3 a9 e0    lda #$e0
40c5 95 00    sta $00,x
40c7 9d 5b 02 sta $025b,x
40ca 20 99 d5 jsr $d599
40cd a5 80    lda $80
40cf 0a       asl a
40d0 aa       tax 
40d1 bd 7e bd lda $bd7e,x
40d4 85 30    sta $30
40d6 bd 7f bd lda $bd7f,x
40d9 85 31    sta $31
40db a5 81    lda $81
40dd 0a       asl a
40de a8       tay 
40df b1 30    lda ($30),y
40e1 85 80    sta $80
40e3 48       pha 
40e4 c8       iny 
40e5 b1 30    lda ($30),y
40e7 85 81    sta $81
40e9 68       pla 
40ea d0 b5    bne $40a1
40ec 68       pla 
40ed 8d 00 02 sta $0200
40f0 c9 56    cmp #$56
40f2 d0 03    bne $40f7
40f4 4c 27 d2 jmp $d227
40f7 4c a7 c8 jmp $c8a7
40fa aa       tax 
40fb aa       tax 
40fc d3       ???
40fd 78       sei 
40fe a9 f7    lda #$f7
4100 2d 00 1c and $1c00
4103 48       pha 
4104 a5 7f    lda $7f
4106 f0 05    beq $410d
4108 68       pla 
4109 09 00    ora #$00
410b d0 03    bne $4110
410d 68       pla 
410e 09 08    ora #$08
4110 8d 00 1c sta $1c00
4113 58       cli 
4114 60       rts 
4115 78       sei 
4116 a9 08    lda #$08
4118 0d 00 1c ora $1c00
411b 8d 00 1c sta $1c00
411e 58       cli 
411f 60       rts 
4120 a9 00    lda #$00
4122 8d 6c 02 sta $026c
4125 8d 6d 02 sta $026d
4128 60       rts 
4129 78       sei 
412a 8a       txa 
412b 48       pha 
412c a9 50    lda #$50
412e 8d 6c 02 sta $026c
4131 a2 00    ldx #$00
4133 bd ca fe lda $feca,x
4136 8d 6d 02 sta $026d
4139 0d 00 1c ora $1c00
413c 8d 00 1c sta $1c00
413f 68       pla 
4140 aa       tax 
4141 58       cli 
4142 60       rts 
4143 a9 00    lda #$00
4145 8d f9 02 sta $02f9
4148 ad 8e 02 lda $028e
414b 85 7f    sta $7f
414d 20 bc e6 jsr $e6bc
4150 a5 84    lda $84
4152 10 09    bpl $415d
4154 29 0f    and #$0f
4156 c9 0f    cmp #$0f
4158 f0 03    beq $415d
415a 4c b4 d7 jmp $d7b4
415d 20 b3 c2 jsr $c2b3
4160 b1 a3    lda ($a3),y
4162 8d 75 02 sta $0275
4165 a2 0b    ldx #$0b
4167 bd 89 fe lda $fe89,x
416a cd 75 02 cmp $0275
416d f0 08    beq $4177
416f ca       dex 
4170 10 f5    bpl $4167
4172 a9 31    lda #$31
4174 4c c8 c1 jmp $c1c8
4177 8e 2a 02 stx $022a
417a e0 09    cpx #$09
417c 90 03    bcc $4181
417e 20 ee c1 jsr $c1ee
4181 ae 2a 02 ldx $022a
4184 bd 95 fe lda $fe95,x
4187 85 6f    sta $6f
4189 bd a1 fe lda $fea1,x
418c 85 70    sta $70
418e 6c 6f 00 jmp ($006f)
4191 a9 00    lda #$00
4193 8d f9 02 sta $02f9
4196 ad 6c 02 lda $026c
4199 d0 2a    bne $41c5
419b a0 00    ldy #$00
419d 98       tya 
419e 84 80    sty $80
41a0 84 81    sty $81
41a2 84 a3    sty $a3
41a4 20 c7 e6 jsr $e6c7
41a7 20 23 c1 jsr $c123
41aa a5 7f    lda $7f
41ac 8d 8e 02 sta $028e
41af aa       tax 
41b0 a9 00    lda #$00
41b2 95 ff    sta $ff,x
41b4 20 bd c1 jsr $c1bd
41b7 4c da d4 jmp $d4da
41ba a0 28    ldy #$28
41bc a9 00    lda #$00
41be 99 00 02 sta $0200,y
41c1 88       dey 
41c2 10 fa    bpl $41be
41c4 60       rts 
41c5 a0 00    ldy #$00
41c7 84 80    sty $80
41c9 84 81    sty $81
41cb 4c 45 e6 jmp $e645
41ce a2 00    ldx #$00
41d0 8e 7a 02 stx $027a
41d3 a9 3a    lda #$3a
41d5 20 68 c2 jsr $c268
41d8 f0 05    beq $41df
41da 88       dey 
41db 88       dey 
41dc 8c 7a 02 sty $027a
41df 4c 68 c3 jmp $c368
41e2 a0 00    ldy #$00
41e4 a2 00    ldx #$00
41e6 a9 3a    lda #$3a
41e8 4c 68 c2 jmp $c268
41eb 20 e5 c1 jsr $c1e5
41ee d0 05    bne $41f5
41f0 a9 34    lda #$34
41f2 4c c8 c1 jmp $c1c8
41f5 88       dey 
41f6 88       dey 
41f7 8c 7a 02 sty $027a
41fa 8a       txa 
41fb d0 f3    bne $41f0
41fd a9 3d    lda #$3d
41ff 20 68 c2 jsr $c268
4202 8a       txa 
4203 f0 02    beq $4207
4205 a9 40    lda #$40
4207 09 21    ora #$21
4209 8d 8b 02 sta $028b
420c e8       inx 
420d 8e 77 02 stx $0277
4210 8e 78 02 stx $0278
4213 ad 8a 02 lda $028a
4216 f0 0d    beq $4225
4218 a9 80    lda #$80
421a 0d 8b 02 ora $028b
421d 8d 8b 02 sta $028b
4220 a9 00    lda #$00
4222 8d 8a 02 sta $028a
4225 98       tya 
4226 f0 29    beq $4251
4228 9d 7a 02 sta $027a,x
422b ad 77 02 lda $0277
422e 8d 79 02 sta $0279
4231 a9 8d    lda #$8d
4233 20 68 c2 jsr $c268
4236 e8       inx 
4237 8e 78 02 stx $0278
423a ca       dex 
423b ad 8a 02 lda $028a
423e f0 02    beq $4242
4240 a9 08    lda #$08
4242 ec 77 02 cpx $0277
4245 f0 02    beq $4249
4247 09 04    ora #$04
4249 09 03    ora #$03
424b 4d 8b 02 eor $028b
424e 8d 8b 02 sta $028b
4251 ad 8b 02 lda $028b
4254 ae 2a 02 ldx $022a
4257 3d a5 fe and $fea5,x
425a d0 01    bne $425d
425c 60       rts 
425d 8d 6c 02 sta $026c
4260 a9 30    lda #$30
4262 4c c8 c1 jmp $c1c8
4265 8d 75 02 sta $0275
4268 cc 74 02 cpy $0274
426b b0 2e    bcs $429b
426d b1 a3    lda ($a3),y
426f c8       iny 
4270 cd 75 02 cmp $0275
4273 f0 28    beq $429d
4275 c9 2a    cmp #$2a
4277 f0 04    beq $427d
4279 c9 3f    cmp #$3f
427b d0 03    bne $4280
427d ee 8a 02 inc $028a
4280 c9 2c    cmp #$2c
4282 d0 e4    bne $4268
4284 98       tya 
4285 9d 7b 02 sta $027b,x
4288 ad 8a 02 lda $028a
428b 29 7f    and #$7f
428d f0 07    beq $4296
428f a9 80    lda #$80
4291 95 e7    sta $e7,x
4293 8d 8a 02 sta $028a
4296 e8       inx 
4297 e0 04    cpx #$04
4299 90 cd    bcc $4268
429b a0 00    ldy #$00
429d ad 74 02 lda $0274
42a0 9d 7b 02 sta $027b,x
42a3 ad 8a 02 lda $028a
42a6 29 7f    and #$7f
42a8 f0 04    beq $42ae
42aa a9 80    lda #$80
42ac 95 e7    sta $e7,x
42ae 98       tya 
42af 60       rts 
42b0 a4 a3    ldy $a3
42b2 f0 14    beq $42c8
42b4 88       dey 
42b5 f0 10    beq $42c7
42b7 b9 00 02 lda $0200,y
42ba c9 0d    cmp #$0d
42bc f0 0a    beq $42c8
42be 88       dey 
42bf b9 00 02 lda $0200,y
42c2 c9 0d    cmp #$0d
42c4 f0 02    beq $42c8
42c6 c8       iny 
42c7 c8       iny 
42c8 8c 74 02 sty $0274
42cb c0 2a    cpy #$2a
42cd a0 ff    ldy #$ff
42cf 90 08    bcc $42d9
42d1 8c 2a 02 sty $022a
42d4 a9 32    lda #$32
42d6 4c c8 c1 jmp $c1c8
42d9 a0 00    ldy #$00
42db 98       tya 
42dc 85 a3    sta $a3
42de 8d 58 02 sta $0258
42e1 8d 4a 02 sta $024a
42e4 8d 96 02 sta $0296
42e7 85 d3    sta $d3
42e9 8d 79 02 sta $0279
42ec 8d 77 02 sta $0277
42ef 8d 78 02 sta $0278
42f2 8d 8a 02 sta $028a
42f5 8d 6c 02 sta $026c
42f8 a2 05    ldx #$05
42fa 9d 79 02 sta $0279,x
42fd 95 d7    sta $d7,x
42ff 95 dc    sta $dc,x
4301 95 e1    sta $e1,x
4303 95 e6    sta $e6,x
4305 9d 7f 02 sta $027f,x
4308 9d 84 02 sta $0284,x
430b ca       dex 
430c d0 ec    bne $42fa
430e 60       rts 
430f ad 78 02 lda $0278
4312 8d 77 02 sta $0277
4315 a9 01    lda #$01
4317 8d 78 02 sta $0278
431a 8d 79 02 sta $0279
431d ac 8e 02 ldy $028e
4320 a2 00    ldx #$00
4322 86 d3    stx $d3
4324 bd 7a 02 lda $027a,x
4327 20 3c c3 jsr $c33c
432a a6 d3    ldx $d3
432c 9d 7a 02 sta $027a,x
432f 98       tya 
4330 95 e2    sta $e2,x
4332 e8       inx 
4333 ec 78 02 cpx $0278
4336 90 ea    bcc $4322
4338 60       rts 
4339 aa       tax 
433a a0 00    ldy #$00
433c a9 3a    lda #$3a
433e dd 01 02 cmp $0201,x
4341 f0 0c    beq $434f
4343 dd 00 02 cmp $0200,x
4346 d0 16    bne $435e
4348 e8       inx 
4349 98       tya 
434a 29 01    and #$01
434c a8       tay 
434d 8a       txa 
434e 60       rts 
434f bd 00 02 lda $0200,x
4352 e8       inx 
4353 e8       inx 
4354 c9 30    cmp #$30
4356 f0 f2    beq $434a
4358 c9 31    cmp #$31
435a f0 ee    beq $434a
435c d0 eb    bne $4349
435e 98       tya 
435f 09 80    ora #$80
4361 29 81    and #$81
4363 d0 e7    bne $434c
4365 a9 00    lda #$00
4367 8d 8b 02 sta $028b
436a ac 7a 02 ldy $027a
436d b1 a3    lda ($a3),y
436f 20 bd c3 jsr $c3bd
4372 10 11    bpl $4385
4374 c8       iny 
4375 cc 74 02 cpy $0274
4378 b0 06    bcs $4380
437a ac 74 02 ldy $0274
437d 88       dey 
437e d0 ed    bne $436d
4380 ce 8b 02 dec $028b
4383 a9 00    lda #$00
4385 29 01    and #$01
4387 85 7f    sta $7f
4389 4c 00 c1 jmp $c100
438c a5 7f    lda $7f
438e 49 01    eor #$01
4390 29 01    and #$01
4392 85 7f    sta $7f
4394 60       rts 
4395 a0 00    ldy #$00
4397 ad 77 02 lda $0277
439a cd 78 02 cmp $0278
439d f0 16    beq $43b5
439f ce 78 02 dec $0278
43a2 ac 78 02 ldy $0278
43a5 b9 7a 02 lda $027a,y
43a8 a8       tay 
43a9 b1 a3    lda ($a3),y
43ab a0 04    ldy #$04
43ad d9 bb fe cmp $febb,y
43b0 f0 03    beq $43b5
43b2 88       dey 
43b3 d0 f8    bne $43ad
43b5 98       tya 
43b6 8d 96 02 sta $0296
43b9 60       rts 
43ba c9 30    cmp #$30
43bc f0 06    beq $43c4
43be c9 31    cmp #$31
43c0 f0 02    beq $43c4
43c2 09 80    ora #$80
43c4 29 81    and #$81
43c6 60       rts 
43c7 a9 00    lda #$00
43c9 85 6f    sta $6f
43cb 8d 8d 02 sta $028d
43ce 48       pha 
43cf ae 78 02 ldx $0278
43d2 68       pla 
43d3 05 6f    ora $6f
43d5 48       pha 
43d6 a9 01    lda #$01
43d8 85 6f    sta $6f
43da ca       dex 
43db 30 0f    bmi $43ec
43dd b5 e2    lda $e2,x
43df 10 04    bpl $43e5
43e1 06 6f    asl $6f
43e3 06 6f    asl $6f
43e5 4a       lsr a
43e6 90 ea    bcc $43d2
43e8 06 6f    asl $6f
43ea d0 e6    bne $43d2
43ec 68       pla 
43ed aa       tax 
43ee bd 3f c4 lda $c43f,x
43f1 48       pha 
43f2 29 03    and #$03
43f4 8d 8c 02 sta $028c
43f7 68       pla 
43f8 0a       asl a
43f9 10 3e    bpl $4439
43fb a5 e2    lda $e2
43fd 29 01    and #$01
43ff 85 7f    sta $7f
4401 ad 8c 02 lda $028c
4404 f0 2b    beq $4431
4406 20 3d c6 jsr $c63d
4409 f0 12    beq $441d
440b 20 8f c3 jsr $c38f
440e a9 00    lda #$00
4410 8d 8c 02 sta $028c
4413 20 3d c6 jsr $c63d
4416 f0 1e    beq $4436
4418 a9 74    lda #$74
441a 20 c8 c1 jsr $c1c8
441d 20 8f c3 jsr $c38f
4420 20 3d c6 jsr $c63d
4423 08       php 
4424 20 8f c3 jsr $c38f
4427 28       plp 
4428 f0 0c    beq $4436
442a a9 00    lda #$00
442c 8d 8c 02 sta $028c
442f f0 05    beq $4436
4431 20 3d c6 jsr $c63d
4434 d0 e2    bne $4418
4436 4c 00 c1 jmp $c100
4439 2a       rol a
443a 4c 00 c4 jmp $c400
443d 00       brk 
443e 80       ???
443f 41 01    eor ($01,x)
4441 01 01    ora ($01,x)
4443 01 81    ora ($81,x)
4445 81 81    sta ($81,x)
4447 81 42    sta ($42,x)
4449 42       ???
444a 42       ???
444b 42       ???
444c 20 ca c3 jsr $c3ca
444f a9 00    lda #$00
4451 8d 92 02 sta $0292
4454 20 ac c5 jsr $c5ac
4457 d0 19    bne $4472
4459 ce 8c 02 dec $028c
445c 10 01    bpl $445f
445e 60       rts 
445f a9 01    lda #$01
4461 8d 8d 02 sta $028d
4464 20 8f c3 jsr $c38f
4467 20 00 c1 jsr $c100
446a 4c 52 c4 jmp $c452
446d 20 17 c6 jsr $c617
4470 f0 10    beq $4482
4472 20 d8 c4 jsr $c4d8
4475 ad 8f 02 lda $028f
4478 f0 01    beq $447b
447a 60       rts 
447b ad 53 02 lda $0253
447e 30 ed    bmi $446d
4480 10 f0    bpl $4472
4482 ad 8f 02 lda $028f
4485 f0 d2    beq $4459
4487 60       rts 
4488 20 04 c6 jsr $c604
448b f0 1a    beq $44a7
448d d0 28    bne $44b7
448f a9 01    lda #$01
4491 8d 8d 02 sta $028d
4494 20 8f c3 jsr $c38f
4497 20 00 c1 jsr $c100
449a a9 00    lda #$00
449c 8d 92 02 sta $0292
449f 20 ac c5 jsr $c5ac
44a2 d0 13    bne $44b7
44a4 8d 8f 02 sta $028f
44a7 ad 8f 02 lda $028f
44aa d0 28    bne $44d4
44ac ce 8c 02 dec $028c
44af 10 de    bpl $448f
44b1 60       rts 
44b2 20 17 c6 jsr $c617
44b5 f0 f0    beq $44a7
44b7 20 d8 c4 jsr $c4d8
44ba ae 53 02 ldx $0253
44bd 10 07    bpl $44c6
44bf ad 8f 02 lda $028f
44c2 f0 ee    beq $44b2
44c4 d0 0e    bne $44d4
44c6 ad 96 02 lda $0296
44c9 f0 09    beq $44d4
44cb b5 e7    lda $e7,x
44cd 29 07    and #$07
44cf cd 96 02 cmp $0296
44d2 d0 de    bne $44b2
44d4 60       rts 
44d5 a2 ff    ldx #$ff
44d7 8e 53 02 stx $0253
44da e8       inx 
44db 8e 8a 02 stx $028a
44de 20 89 c5 jsr $c589
44e1 f0 06    beq $44e9
44e3 60       rts 
44e4 20 94 c5 jsr $c594
44e7 d0 fa    bne $44e3
44e9 a5 7f    lda $7f
44eb 55 e2    eor $e2,x
44ed 4a       lsr a
44ee 90 0b    bcc $44fb
44f0 29 40    and #$40
44f2 f0 f0    beq $44e4
44f4 a9 02    lda #$02
44f6 cd 8c 02 cmp $028c
44f9 f0 e9    beq $44e4
44fb bd 7a 02 lda $027a,x
44fe aa       tax 
44ff 20 a6 c6 jsr $c6a6
4502 a0 03    ldy #$03
4504 4c 1d c5 jmp $c51d
4507 bd 00 02 lda $0200,x
450a d1 94    cmp ($94),y
450c f0 0a    beq $4518
450e c9 3f    cmp #$3f
4510 d0 d2    bne $44e4
4512 b1 94    lda ($94),y
4514 c9 a0    cmp #$a0
4516 f0 cc    beq $44e4
4518 e8       inx 
4519 c8       iny 
451a ec 76 02 cpx $0276
451d b0 09    bcs $4528
451f bd 00 02 lda $0200,x
4522 c9 2a    cmp #$2a
4524 f0 0c    beq $4532
4526 d0 df    bne $4507
4528 c0 13    cpy #$13
452a b0 06    bcs $4532
452c b1 94    lda ($94),y
452e c9 a0    cmp #$a0
4530 d0 b2    bne $44e4
4532 ae 79 02 ldx $0279
4535 8e 53 02 stx $0253
4538 b5 e7    lda $e7,x
453a 29 80    and #$80
453c 8d 8a 02 sta $028a
453f ad 94 02 lda $0294
4542 95 dd    sta $dd,x
4544 a5 81    lda $81
4546 95 d8    sta $d8,x
4548 a0 00    ldy #$00
454a b1 94    lda ($94),y
454c c8       iny 
454d 48       pha 
454e 29 40    and #$40
4550 85 6f    sta $6f
4552 68       pla 
4553 29 df    and #$df
4555 30 02    bmi $4559
4557 09 20    ora #$20
4559 29 27    and #$27
455b 05 6f    ora $6f
455d 85 6f    sta $6f
455f a9 80    lda #$80
4561 35 e7    and $e7,x
4563 05 6f    ora $6f
4565 95 e7    sta $e7,x
4567 b5 e2    lda $e2,x
4569 29 80    and #$80
456b 05 7f    ora $7f
456d 95 e2    sta $e2,x
456f b1 94    lda ($94),y
4571 9d 80 02 sta $0280,x
4574 c8       iny 
4575 b1 94    lda ($94),y
4577 9d 85 02 sta $0285,x
457a ad 58 02 lda $0258
457d d0 07    bne $4586
457f a0 15    ldy #$15
4581 b1 94    lda ($94),y
4583 8d 58 02 sta $0258
4586 a9 ff    lda #$ff
4588 8d 8f 02 sta $028f
458b ad 78 02 lda $0278
458e 8d 79 02 sta $0279
4591 ce 79 02 dec $0279
4594 10 01    bpl $4597
4596 60       rts 
4597 ae 79 02 ldx $0279
459a b5 e7    lda $e7,x
459c 30 05    bmi $45a3
459e bd 80 02 lda $0280,x
45a1 d0 ee    bne $4591
45a3 a9 00    lda #$00
45a5 8d 8f 02 sta $028f
45a8 60       rts 
45a9 a0 00    ldy #$00
45ab 8c 91 02 sty $0291
45ae 88       dey 
45af 8c 53 02 sty $0253
45b2 ad 85 fe lda $fe85
45b5 85 80    sta $80
45b7 a9 01    lda #$01
45b9 85 81    sta $81
45bb 8d 93 02 sta $0293
45be 20 75 d4 jsr $d475
45c1 ad 93 02 lda $0293
45c4 d0 01    bne $45c7
45c6 60       rts 
45c7 a9 07    lda #$07
45c9 8d 95 02 sta $0295
45cc a9 00    lda #$00
45ce 20 f6 d4 jsr $d4f6
45d1 8d 93 02 sta $0293
45d4 20 e8 d4 jsr $d4e8
45d7 ce 95 02 dec $0295
45da a0 00    ldy #$00
45dc b1 94    lda ($94),y
45de d0 18    bne $45f8
45e0 ad 91 02 lda $0291
45e3 d0 2f    bne $4614
45e5 20 3b de jsr $de3b
45e8 a5 81    lda $81
45ea 8d 91 02 sta $0291
45ed a5 94    lda $94
45ef ae 92 02 ldx $0292
45f2 8d 92 02 sta $0292
45f5 f0 1d    beq $4614
45f7 60       rts 
45f8 a2 01    ldx #$01
45fa ec 92 02 cpx $0292
45fd d0 2d    bne $462c
45ff f0 13    beq $4614
4601 ad 85 fe lda $fe85
4604 85 80    sta $80
4606 ad 90 02 lda $0290
4609 85 81    sta $81
460b 20 75 d4 jsr $d475
460e ad 94 02 lda $0294
4611 20 c8 d4 jsr $d4c8
4614 a9 ff    lda #$ff
4616 8d 53 02 sta $0253
4619 ad 95 02 lda $0295
461c 30 08    bmi $4626
461e a9 20    lda #$20
4620 20 c6 d1 jsr $d1c6
4623 4c d7 c5 jmp $c5d7
4626 20 4d d4 jsr $d44d
4629 4c c4 c5 jmp $c5c4
462c a5 94    lda $94
462e 8d 94 02 sta $0294
4631 20 3b de jsr $de3b
4634 a5 81    lda $81
4636 8d 90 02 sta $0290
4639 60       rts 
463a a5 68    lda $68
463c d0 28    bne $4666
463e a6 7f    ldx $7f
4640 56 1c    lsr $1c,x
4642 90 22    bcc $4666
4644 a9 ff    lda #$ff
4646 8d 98 02 sta $0298
4649 20 0e d0 jsr $d00e
464c a0 ff    ldy #$ff
464e c9 02    cmp #$02
4650 f0 0a    beq $465c
4652 c9 03    cmp #$03
4654 f0 06    beq $465c
4656 c9 0f    cmp #$0f
4658 f0 02    beq $465c
465a a0 00    ldy #$00
465c a6 7f    ldx $7f
465e 98       tya 
465f 95 ff    sta $ff,x
4661 d0 03    bne $4666
4663 20 42 d0 jsr $d042
4666 a6 7f    ldx $7f
4668 b5 ff    lda $ff,x
466a 60       rts 
466b 48       pha 
466c 20 a6 c6 jsr $c6a6
466f 20 88 c6 jsr $c688
4672 68       pla 
4673 38       sec 
4674 ed 4b 02 sbc $024b
4677 aa       tax 
4678 f0 0a    beq $4684
467a 90 08    bcc $4684
467c a9 a0    lda #$a0
467e 91 94    sta ($94),y
4680 c8       iny 
4681 ca       dex 
4682 d0 fa    bne $467e
4684 60       rts 
4685 98       tya 
4686 0a       asl a
4687 a8       tay 
4688 b9 99 00 lda $0099,y
468b 85 94    sta $94
468d b9 9a 00 lda $009a,y
4690 85 95    sta $95
4692 a0 00    ldy #$00
4694 bd 00 02 lda $0200,x
4697 91 94    sta ($94),y
4699 c8       iny 
469a f0 06    beq $46a2
469c e8       inx 
469d ec 76 02 cpx $0276
46a0 90 f2    bcc $4694
46a2 60       rts 
46a3 a9 00    lda #$00
46a5 8d 4b 02 sta $024b
46a8 8a       txa 
46a9 48       pha 
46aa bd 00 02 lda $0200,x
46ad c9 2c    cmp #$2c
46af f0 14    beq $46c5
46b1 c9 3d    cmp #$3d
46b3 f0 10    beq $46c5
46b5 ee 4b 02 inc $024b
46b8 e8       inx 
46b9 a9 0f    lda #$0f
46bb cd 4b 02 cmp $024b
46be 90 05    bcc $46c5
46c0 ec 74 02 cpx $0274
46c3 90 e5    bcc $46aa
46c5 8e 76 02 stx $0276
46c8 68       pla 
46c9 aa       tax 
46ca 60       rts 
46cb a5 83    lda $83
46cd 48       pha 
46ce a5 82    lda $82
46d0 48       pha 
46d1 20 de c6 jsr $c6de
46d4 68       pla 
46d5 85 82    sta $82
46d7 68       pla 
46d8 85 83    sta $83
46da 60       rts 
46db a9 11    lda #$11
46dd 85 83    sta $83
46df 20 eb d0 jsr $d0eb
46e2 20 e8 d4 jsr $d4e8
46e5 ad 53 02 lda $0253
46e8 10 0a    bpl $46f4
46ea ad 8d 02 lda $028d
46ed d0 0a    bne $46f9
46ef 20 06 c8 jsr $c806
46f2 18       clc 
46f3 60       rts 
46f4 ad 8d 02 lda $028d
46f7 f0 1f    beq $4718
46f9 ce 8d 02 dec $028d
46fc d0 0d    bne $470b
46fe ce 8d 02 dec $028d
4701 20 8f c3 jsr $c38f
4704 20 06 c8 jsr $c806
4707 38       sec 
4708 4c 8f c3 jmp $c38f
470b a9 00    lda #$00
470d 8d 73 02 sta $0273
4710 8d 8d 02 sta $028d
4713 20 b7 c7 jsr $c7b7
4716 38       sec 
4717 60       rts 
4718 a2 18    ldx #$18
471a a0 1d    ldy #$1d
471c b1 94    lda ($94),y
471e 8d 73 02 sta $0273
4721 f0 02    beq $4725
4723 a2 16    ldx #$16
4725 88       dey 
4726 b1 94    lda ($94),y
4728 8d 72 02 sta $0272
472b e0 16    cpx #$16
472d f0 0a    beq $4739
472f c9 0a    cmp #$0a
4731 90 06    bcc $4739
4733 ca       dex 
4734 c9 64    cmp #$64
4736 90 01    bcc $4739
4738 ca       dex 
4739 20 ac c7 jsr $c7ac
473c b1 94    lda ($94),y
473e 48       pha 
473f 0a       asl a
4740 10 05    bpl $4747
4742 a9 3c    lda #$3c
4744 9d b2 02 sta $02b2,x
4747 68       pla 
4748 29 0f    and #$0f
474a a8       tay 
474b b9 c5 fe lda $fec5,y
474e 9d b1 02 sta $02b1,x
4751 ca       dex 
4752 b9 c0 fe lda $fec0,y
4755 9d b1 02 sta $02b1,x
4758 ca       dex 
4759 b9 bb fe lda $febb,y
475c 9d b1 02 sta $02b1,x
475f ca       dex 
4760 ca       dex 
4761 b0 05    bcs $4768
4763 a9 2a    lda #$2a
4765 9d b2 02 sta $02b2,x
4768 a9 a0    lda #$a0
476a 9d b1 02 sta $02b1,x
476d ca       dex 
476e a0 12    ldy #$12
4770 b1 94    lda ($94),y
4772 9d b1 02 sta $02b1,x
4775 ca       dex 
4776 88       dey 
4777 c0 03    cpy #$03
4779 b0 f5    bcs $4770
477b a9 22    lda #$22
477d 9d b1 02 sta $02b1,x
4780 e8       inx 
4781 e0 20    cpx #$20
4783 b0 0b    bcs $4790
4785 bd b1 02 lda $02b1,x
4788 c9 22    cmp #$22
478a f0 04    beq $4790
478c c9 a0    cmp #$a0
478e d0 f0    bne $4780
4790 a9 22    lda #$22
4792 9d b1 02 sta $02b1,x
4795 e8       inx 
4796 e0 20    cpx #$20
4798 b0 0a    bcs $47a4
479a a9 7f    lda #$7f
479c 3d b1 02 and $02b1,x
479f 9d b1 02 sta $02b1,x
47a2 10 f1    bpl $4795
47a4 20 b5 c4 jsr $c4b5
47a7 38       sec 
47a8 60       rts 
47a9 a0 1b    ldy #$1b
47ab a9 20    lda #$20
47ad 99 b0 02 sta $02b0,y
47b0 88       dey 
47b1 d0 fa    bne $47ad
47b3 60       rts 
47b4 20 19 f1 jsr $f119
47b7 20 df f0 jsr $f0df
47ba 20 ac c7 jsr $c7ac
47bd a9 ff    lda #$ff
47bf 85 6f    sta $6f
47c1 a6 7f    ldx $7f
47c3 8e 72 02 stx $0272
47c6 a9 00    lda #$00
47c8 8d 73 02 sta $0273
47cb a6 f9    ldx $f9
47cd bd e0 fe lda $fee0,x
47d0 85 95    sta $95
47d2 ad 88 fe lda $fe88
47d5 85 94    sta $94
47d7 a0 16    ldy #$16
47d9 b1 94    lda ($94),y
47db c9 a0    cmp #$a0
47dd d0 0b    bne $47ea
47df a9 31    lda #$31
47e1 2c b1 94 bit $94b1
47e4 c9 a0    cmp #$a0
47e6 d0 02    bne $47ea
47e8 a9 20    lda #$20
47ea 99 b3 02 sta $02b3,y
47ed 88       dey 
47ee 10 f2    bpl $47e2
47f0 a9 12    lda #$12
47f2 8d b1 02 sta $02b1
47f5 a9 22    lda #$22
47f7 8d b2 02 sta $02b2
47fa 8d c3 02 sta $02c3
47fd a9 20    lda #$20
47ff 8d c4 02 sta $02c4
4802 60       rts 
4803 20 ac c7 jsr $c7ac
4806 a0 0b    ldy #$0b
4808 b9 17 c8 lda $c817,y
480b 99 b1 02 sta $02b1,y
480e 88       dey 
480f 10 f7    bpl $4808
4811 4c 4d ef jmp $ef4d
4814 42       ???
4815 4c 4f 43 jmp $434f
4818 4b       ???
4819 53       ???
481a 20 46 52 jsr $5246
481d 45 45    eor $45
481f 2e 20 98 rol $9820
4822 c3       ???
4823 20 20 c3 jsr $c320
4826 20 ca c3 jsr $c3ca
4829 a9 00    lda #$00
482b 85 86    sta $86
482d 20 9d c4 jsr $c49d
4830 30 3d    bmi $486f
4832 20 01 c0 jsr $c001
4835 90 33    bcc $486a
4837 a0 00    ldy #$00
4839 b1 94    lda ($94),y
483b 29 40    and #$40
483d d0 2b    bne $486a
483f 20 b6 c8 jsr $c8b6
4842 a0 13    ldy #$13
4844 b1 94    lda ($94),y
4846 f0 0a    beq $4852
4848 85 80    sta $80
484a c8       iny 
484b b1 94    lda ($94),y
484d 85 81    sta $81
484f 20 7d c8 jsr $c87d
4852 ae 53 02 ldx $0253
4855 a9 20    lda #$20
4857 35 e7    and $e7,x
4859 d0 0d    bne $4868
485b bd 80 02 lda $0280,x
485e 85 80    sta $80
4860 bd 85 02 lda $0285,x
4863 85 81    sta $81
4865 20 7d c8 jsr $c87d
4868 e6 86    inc $86
486a 20 8b c4 jsr $c48b
486d 10 c3    bpl $4832
486f a5 86    lda $86
4871 85 80    sta $80
4873 a9 01    lda #$01
4875 a0 00    ldy #$00
4877 4c 7d ff jmp $ff7d
487a 4c 32 c0 jmp $c032
487d 20 75 d4 jsr $d475
4880 20 19 f1 jsr $f119
4883 b5 a7    lda $a7,x
4885 c9 ff    cmp #$ff
4887 f0 08    beq $4891
4889 ad f9 02 lda $02f9
488c 09 40    ora #$40
488e 8d f9 02 sta $02f9
4891 a9 00    lda #$00
4893 20 c8 d4 jsr $d4c8
4896 20 56 d1 jsr $d156
4899 85 80    sta $80
489b 20 56 d1 jsr $d156
489e 85 81    sta $81
48a0 a5 80    lda $80
48a2 d0 06    bne $48aa
48a4 20 f4 ee jsr $eef4
48a7 4c 27 d2 jmp $d227
48aa 20 5f ef jsr $ef5f
48ad 20 4d d4 jsr $d44d
48b0 4c 94 c8 jmp $c894
48b3 a0 00    ldy #$00
48b5 98       tya 
48b6 91 94    sta ($94),y
48b8 20 5e de jsr $de5e
48bb 4c 99 d5 jmp $d599
48be a9 31    lda #$31
48c0 4c c8 c1 jmp $c1c8
48c3 a2 02    ldx #$02
48c5 bd eb c8 lda $c8eb,x
48c8 9d 00 06 sta $0600,x
48cb ca       dex 
48cc 10 f7    bpl $48c5
48ce 86 51    stx $51
48d0 a9 03    lda #$03
48d2 20 d3 d6 jsr $d6d3
48d5 a2 03    ldx #$03
48d7 a5 7f    lda $7f
48d9 09 e0    ora #$e0
48db 85 03    sta $03
48dd a5 03    lda $03
48df 30 fc    bmi $48dd
48e1 c9 02    cmp #$02
48e3 90 07    bcc $48ec
48e5 4c 0a e6 jmp $e60a
48e8 4c c7 fa jmp $fac7
48eb ea       nop 
48ec 60       rts 
48ed a9 e0    lda #$e0
48ef 8d 4f 02 sta $024f
48f2 20 d1 f0 jsr $f0d1
48f5 20 19 f1 jsr $f119
48f8 a9 ff    lda #$ff
48fa 95 a7    sta $a7,x
48fc a9 0f    lda #$0f
48fe 8d 56 02 sta $0256
4901 20 e5 c1 jsr $c1e5
4904 d0 03    bne $4909
4906 4c c1 c8 jmp $c8c1
4909 20 f8 c1 jsr $c1f8
490c 20 20 c3 jsr $c320
490f ad 8b 02 lda $028b
4912 29 55    and #$55
4914 d0 0f    bne $4925
4916 ae 7a 02 ldx $027a
4919 bd 00 02 lda $0200,x
491c c9 2a    cmp #$2a
491e d0 05    bne $4925
4920 a9 30    lda #$30
4922 4c c8 c1 jmp $c1c8
4925 ad 8b 02 lda $028b
4928 29 d9    and #$d9
492a d0 f4    bne $4920
492c 4c 52 c9 jmp $c952
492f a9 00    lda #$00
4931 8d 58 02 sta $0258
4934 8d 8c 02 sta $028c
4937 8d 80 02 sta $0280
493a 8d 81 02 sta $0281
493d a5 e3    lda $e3
493f 29 01    and #$01
4941 85 7f    sta $7f
4943 09 01    ora #$01
4945 8d 91 02 sta $0291
4948 ad 7b 02 lda $027b
494b 8d 7a 02 sta $027a
494e 60       rts 
494f 20 4f c4 jsr $c44f
4952 ad 78 02 lda $0278
4955 c9 03    cmp #$03
4957 90 45    bcc $499e
4959 a5 e2    lda $e2
495b c5 e3    cmp $e3
495d d0 3f    bne $499e
495f a5 dd    lda $dd
4961 c5 de    cmp $de
4963 d0 39    bne $499e
4965 a5 d8    lda $d8
4967 c5 d9    cmp $d9
4969 d0 33    bne $499e
496b 20 cc ca jsr $cacc
496e a9 01    lda #$01
4970 8d 79 02 sta $0279
4973 20 fa c9 jsr $c9fa
4976 20 25 d1 jsr $d125
4979 f0 04    beq $497f
497b c9 02    cmp #$02
497d d0 05    bne $4984
497f a9 64    lda #$64
4981 20 c8 c1 jsr $c1c8
4984 a9 12    lda #$12
4986 85 83    sta $83
4988 ad 3c 02 lda $023c
498b 8d 3d 02 sta $023d
498e a9 ff    lda #$ff
4990 8d 3c 02 sta $023c
4993 20 2a da jsr $da2a
4996 a2 02    ldx #$02
4998 20 b9 c9 jsr $c9b9
499b 4c 94 c1 jmp $c194
499e 20 a7 c9 jsr $c9a7
49a1 4c 94 c1 jmp $c194
49a4 20 e7 ca jsr $cae7
49a7 a5 e2    lda $e2
49a9 29 01    and #$01
49ab 85 7f    sta $7f
49ad 20 86 d4 jsr $d486
49b0 20 e4 d6 jsr $d6e4
49b3 ae 77 02 ldx $0277
49b6 8e 79 02 stx $0279
49b9 20 fa c9 jsr $c9fa
49bc a9 11    lda #$11
49be 85 83    sta $83
49c0 20 eb d0 jsr $d0eb
49c3 20 25 d1 jsr $d125
49c6 d0 03    bne $49cb
49c8 20 53 ca jsr $ca53
49cb a9 08    lda #$08
49cd 85 f8    sta $f8
49cf 4c d8 c9 jmp $c9d8
49d2 20 9b cf jsr $cf9b
49d5 20 35 ca jsr $ca35
49d8 a9 80    lda #$80
49da 20 a6 dd jsr $dda6
49dd f0 f3    beq $49d2
49df 20 25 d1 jsr $d125
49e2 f0 03    beq $49e7
49e4 20 9b cf jsr $cf9b
49e7 ae 79 02 ldx $0279
49ea e8       inx 
49eb ec 78 02 cpx $0278
49ee 90 c6    bcc $49b6
49f0 a9 12    lda #$12
49f2 85 83    sta $83
49f4 4c 02 db jmp $db02
49f7 ae 79 02 ldx $0279
49fa b5 e2    lda $e2,x
49fc 29 01    and #$01
49fe 85 7f    sta $7f
4a00 ad 85 fe lda $fe85
4a03 85 80    sta $80
4a05 b5 d8    lda $d8,x
4a07 85 81    sta $81
4a09 20 75 d4 jsr $d475
4a0c ae 79 02 ldx $0279
4a0f b5 dd    lda $dd,x
4a11 20 c8 d4 jsr $d4c8
4a14 ae 79 02 ldx $0279
4a17 b5 e7    lda $e7,x
4a19 29 07    and #$07
4a1b 8d 4a 02 sta $024a
4a1e a9 00    lda #$00
4a20 8d 58 02 sta $0258
4a23 20 a0 d9 jsr $d9a0
4a26 a0 01    ldy #$01
4a28 20 25 d1 jsr $d125
4a2b f0 01    beq $4a2e
4a2d c8       iny 
4a2e 98       tya 
4a2f 4c c8 d4 jmp $d4c8
4a32 a9 11    lda #$11
4a34 85 83    sta $83
4a36 20 9b d3 jsr $d39b
4a39 85 85    sta $85
4a3b a6 82    ldx $82
4a3d b5 f2    lda $f2,x
4a3f 29 08    and #$08
4a41 85 f8    sta $f8
4a43 d0 0a    bne $4a4f
4a45 20 25 d1 jsr $d125
4a48 f0 05    beq $4a4f
4a4a a9 80    lda #$80
4a4c 20 97 dd jsr $dd97
4a4f 60       rts 
4a50 20 d3 d1 jsr $d1d3
4a53 20 cb e1 jsr $e1cb
4a56 a5 d6    lda $d6
4a58 48       pha 
4a59 a5 d5    lda $d5
4a5b 48       pha 
4a5c a9 12    lda #$12
4a5e 85 83    sta $83
4a60 20 07 d1 jsr $d107
4a63 20 d3 d1 jsr $d1d3
4a66 20 cb e1 jsr $e1cb
4a69 20 9c e2 jsr $e29c
4a6c a5 d6    lda $d6
4a6e 85 87    sta $87
4a70 a5 d5    lda $d5
4a72 85 86    sta $86
4a74 a9 00    lda #$00
4a76 85 88    sta $88
4a78 85 d4    sta $d4
4a7a 85 d7    sta $d7
4a7c 68       pla 
4a7d 85 d5    sta $d5
4a7f 68       pla 
4a80 85 d6    sta $d6
4a82 4c 3b e3 jmp $e33b
4a85 20 20 c3 jsr $c320
4a88 a5 e3    lda $e3
4a8a 29 01    and #$01
4a8c 85 e3    sta $e3
4a8e c5 e2    cmp $e2
4a90 f0 02    beq $4a94
4a92 09 80    ora #$80
4a94 85 e2    sta $e2
4a96 20 4f c4 jsr $c44f
4a99 20 e7 ca jsr $cae7
4a9c a5 e3    lda $e3
4a9e 29 01    and #$01
4aa0 85 7f    sta $7f
4aa2 a5 d9    lda $d9
4aa4 85 81    sta $81
4aa6 20 57 de jsr $de57
4aa9 20 99 d5 jsr $d599
4aac a5 de    lda $de
4aae 18       clc 
4aaf 69 03    adc #$03
4ab1 20 c8 d4 jsr $d4c8
4ab4 20 93 df jsr $df93
4ab7 a8       tay 
4ab8 ae 7a 02 ldx $027a
4abb a9 10    lda #$10
4abd 20 6e c6 jsr $c66e
4ac0 20 5e de jsr $de5e
4ac3 20 99 d5 jsr $d599
4ac6 4c 94 c1 jmp $c194
4ac9 a5 e8    lda $e8
4acb 29 07    and #$07
4acd 8d 4a 02 sta $024a
4ad0 ae 78 02 ldx $0278
4ad3 ca       dex 
4ad4 ec 77 02 cpx $0277
4ad7 90 0a    bcc $4ae3
4ad9 bd 80 02 lda $0280,x
4adc d0 f5    bne $4ad3
4ade a9 62    lda #$62
4ae0 4c c8 c1 jmp $c1c8
4ae3 60       rts 
4ae4 20 cc ca jsr $cacc
4ae7 bd 80 02 lda $0280,x
4aea f0 05    beq $4af1
4aec a9 63    lda #$63
4aee 4c c8 c1 jmp $c1c8
4af1 ca       dex 
4af2 10 f3    bpl $4ae7
4af4 60       rts 
4af5 ad 01 02 lda $0201
4af8 c9 2d    cmp #$2d
4afa d0 4c    bne $4b48
4afc ad 03 02 lda $0203
4aff 85 6f    sta $6f
4b01 ad 04 02 lda $0204
4b04 85 70    sta $70
4b06 a0 00    ldy #$00
4b08 ad 02 02 lda $0202
4b0b c9 52    cmp #$52
4b0d f0 0e    beq $4b1d
4b0f 20 58 f2 jsr $f258
4b12 c9 57    cmp #$57
4b14 f0 37    beq $4b4d
4b16 c9 45    cmp #$45
4b18 d0 2e    bne $4b48
4b1a 6c 6f 00 jmp ($006f)
4b1d b1 6f    lda ($6f),y
4b1f 85 85    sta $85
4b21 ad 74 02 lda $0274
4b24 c9 06    cmp #$06
4b26 90 1a    bcc $4b42
4b28 ae 05 02 ldx $0205
4b2b ca       dex 
4b2c f0 14    beq $4b42
4b2e 8a       txa 
4b2f 18       clc 
4b30 65 6f    adc $6f
4b32 e6 6f    inc $6f
4b34 8d 49 02 sta $0249
4b37 a5 6f    lda $6f
4b39 85 a5    sta $a5
4b3b a5 70    lda $70
4b3d 85 a6    sta $a6
4b3f 4c 43 d4 jmp $d443
4b42 20 eb d0 jsr $d0eb
4b45 4c 3a d4 jmp $d43a
4b48 a9 31    lda #$31
4b4a 4c c8 c1 jmp $c1c8
4b4d b9 06 02 lda $0206,y
4b50 91 6f    sta ($6f),y
4b52 c8       iny 
4b53 cc 05 02 cpy $0205
4b56 90 f5    bcc $4b4d
4b58 60       rts 
4b59 ac 01 02 ldy $0201
4b5c c0 30    cpy #$30
4b5e d0 09    bne $4b69
4b60 a9 ea    lda #$ea
4b62 85 6b    sta $6b
4b64 a9 ff    lda #$ff
4b66 85 6c    sta $6c
4b68 60       rts 
4b69 20 72 cb jsr $cb72
4b6c 4c 94 c1 jmp $c194
4b6f 88       dey 
4b70 98       tya 
4b71 29 0f    and #$0f
4b73 0a       asl a
4b74 a8       tay 
4b75 b1 6b    lda ($6b),y
4b77 85 75    sta $75
4b79 c8       iny 
4b7a b1 6b    lda ($6b),y
4b7c 85 76    sta $76
4b7e 6c 75 00 jmp ($0075)
4b81 ad 8e 02 lda $028e
4b84 85 7f    sta $7f
4b86 a5 83    lda $83
4b88 48       pha 
4b89 20 3d c6 jsr $c63d
4b8c 68       pla 
4b8d 85 83    sta $83
4b8f ae 74 02 ldx $0274
4b92 ca       dex 
4b93 d0 0d    bne $4ba2
4b95 a9 01    lda #$01
4b97 20 e2 d1 jsr $d1e2
4b9a 4c f1 cb jmp $cbf1
4b9d a9 70    lda #$70
4b9f 4c c8 c1 jmp $c1c8
4ba2 a0 01    ldy #$01
4ba4 20 7c cc jsr $cc7c
4ba7 ae 85 02 ldx $0285
4baa e0 05    cpx #$05
4bac b0 ef    bcs $4b9d
4bae a9 00    lda #$00
4bb0 85 6f    sta $6f
4bb2 85 70    sta $70
4bb4 38       sec 
4bb5 26 6f    rol $6f
4bb7 26 70    rol $70
4bb9 ca       dex 
4bba 10 f9    bpl $4bb5
4bbc a5 6f    lda $6f
4bbe 2d 4f 02 and $024f
4bc1 d0 da    bne $4b9d
4bc3 a5 70    lda $70
4bc5 2d 50 02 and $0250
4bc8 d0 d3    bne $4b9d
4bca a5 6f    lda $6f
4bcc 0d 4f 02 ora $024f
4bcf 8d 4f 02 sta $024f
4bd2 a5 70    lda $70
4bd4 0d 50 02 ora $0250
4bd7 8d 50 02 sta $0250
4bda a9 00    lda #$00
4bdc 20 e2 d1 jsr $d1e2
4bdf a6 82    ldx $82
4be1 ad 85 02 lda $0285
4be4 95 a7    sta $a7,x
4be6 aa       tax 
4be7 a5 7f    lda $7f
4be9 95 00    sta $00,x
4beb 9d 5b 02 sta $025b,x
4bee a6 83    ldx $83
4bf0 bd 2b 02 lda $022b,x
4bf3 09 40    ora #$40
4bf5 9d 2b 02 sta $022b,x
4bf8 a4 82    ldy $82
4bfa a9 ff    lda #$ff
4bfc 99 44 02 sta $0244,y
4bff a9 89    lda #$89
4c01 99 f2 00 sta $00f2,y
4c04 b9 a7 00 lda $00a7,y
4c07 99 3e 02 sta $023e,y
4c0a 0a       asl a
4c0b aa       tax 
4c0c a9 01    lda #$01
4c0e 95 99    sta $99,x
4c10 a9 0e    lda #$0e
4c12 99 ec 00 sta $00ec,y
4c15 4c 94 c1 jmp $c194
4c18 a0 00    ldy #$00
4c1a a2 00    ldx #$00
4c1c a9 2d    lda #$2d
4c1e 20 68 c2 jsr $c268
4c21 d0 0a    bne $4c2d
4c23 a9 31    lda #$31
4c25 4c c8 c1 jmp $c1c8
4c28 a9 30    lda #$30
4c2a 4c c8 c1 jmp $c1c8
4c2d 8a       txa 
4c2e d0 f8    bne $4c28
4c30 a2 05    ldx #$05
4c32 b9 00 02 lda $0200,y
4c35 dd 5d cc cmp $cc5d,x
4c38 f0 05    beq $4c3f
4c3a ca       dex 
4c3b 10 f8    bpl $4c35
4c3d 30 e4    bmi $4c23
4c3f 8a       txa 
4c40 09 80    ora #$80
4c42 8d 2a 02 sta $022a
4c45 20 6f cc jsr $cc6f
4c48 ad 2a 02 lda $022a
4c4b 0a       asl a
4c4c aa       tax 
4c4d bd 64 cc lda $cc64,x
4c50 85 70    sta $70
4c52 bd 63 cc lda $cc63,x
4c55 85 6f    sta $6f
4c57 6c 6f 00 jmp ($006f)
4c5a 41 46    eor ($46,x)
4c5c 52       ???
4c5d 57       ???
4c5e 45 50    eor $50
4c60 03       ???
4c61 cd f5 cc cmp $ccf5
4c64 56 cd    lsr $cd,x
4c66 73       ???
4c67 cd a3 cd cmp $cda3
4c6a bd cd a0 lda $a0cd,x
4c6d 00       brk 
4c6e a2 00    ldx #$00
4c70 a9 3a    lda #$3a
4c72 20 68 c2 jsr $c268
4c75 d0 02    bne $4c79
4c77 a0 03    ldy #$03
4c79 b9 00 02 lda $0200,y
4c7c c9 20    cmp #$20
4c7e f0 08    beq $4c88
4c80 c9 1d    cmp #$1d
4c82 f0 04    beq $4c88
4c84 c9 2c    cmp #$2c
4c86 d0 07    bne $4c8f
4c88 c8       iny 
4c89 cc 74 02 cpy $0274
4c8c 90 eb    bcc $4c79
4c8e 60       rts 
4c8f 20 a1 cc jsr $cca1
4c92 ee 77 02 inc $0277
4c95 ac 79 02 ldy $0279
4c98 e0 04    cpx #$04
4c9a 90 ec    bcc $4c88
4c9c b0 8a    bcs $4c28
4c9e a9 00    lda #$00
4ca0 85 6f    sta $6f
4ca2 85 70    sta $70
4ca4 85 72    sta $72
4ca6 a2 ff    ldx #$ff
4ca8 b9 00 02 lda $0200,y
4cab c9 40    cmp #$40
4cad b0 18    bcs $4cc7
4caf c9 30    cmp #$30
4cb1 90 14    bcc $4cc7
4cb3 29 0f    and #$0f
4cb5 48       pha 
4cb6 a5 70    lda $70
4cb8 85 71    sta $71
4cba a5 6f    lda $6f
4cbc 85 70    sta $70
4cbe 68       pla 
4cbf 85 6f    sta $6f
4cc1 c8       iny 
4cc2 cc 74 02 cpy $0274
4cc5 90 e1    bcc $4ca8
4cc7 8c 79 02 sty $0279
4cca 18       clc 
4ccb a9 00    lda #$00
4ccd e8       inx 
4cce e0 03    cpx #$03
4cd0 b0 0f    bcs $4ce1
4cd2 b4 6f    ldy $6f,x
4cd4 88       dey 
4cd5 30 f6    bmi $4ccd
4cd7 7d f2 cc adc $ccf2,x
4cda 90 f8    bcc $4cd4
4cdc 18       clc 
4cdd e6 72    inc $72
4cdf d0 f3    bne $4cd4
4ce1 48       pha 
4ce2 ae 77 02 ldx $0277
4ce5 a5 72    lda $72
4ce7 9d 80 02 sta $0280,x
4cea 68       pla 
4ceb 9d 85 02 sta $0285,x
4cee 60       rts 
4cef 01 0a    ora ($0a,x)
4cf1 64       ???
4cf2 20 f5 cd jsr $cdf5
4cf5 20 5f ef jsr $ef5f
4cf8 4c 94 c1 jmp $c194
4cfb a9 01    lda #$01
4cfd 8d f9 02 sta $02f9
4d00 20 f5 cd jsr $cdf5
4d03 a5 81    lda $81
4d05 48       pha 
4d06 20 fa f1 jsr $f1fa
4d09 f0 0b    beq $4d16
4d0b 68       pla 
4d0c c5 81    cmp $81
4d0e d0 19    bne $4d29
4d10 20 90 ef jsr $ef90
4d13 4c 94 c1 jmp $c194
4d16 68       pla 
4d17 a9 00    lda #$00
4d19 85 81    sta $81
4d1b e6 80    inc $80
4d1d a5 80    lda $80
4d1f cd 23 60 cmp $6023
4d22 b0 0a    bcs $4d2e
4d24 20 fa f1 jsr $f1fa
4d27 f0 ee    beq $4d17
4d29 a9 65    lda #$65
4d2b 20 45 e6 jsr $e645
4d2e a9 65    lda #$65
4d30 20 c8 c1 jsr $c1c8
4d33 20 f2 cd jsr $cdf2
4d36 4c 60 d4 jmp $d460
4d39 20 2f d1 jsr $d12f
4d3c a1 99    lda ($99,x)
4d3e 60       rts 
4d3f 20 36 cd jsr $cd36
4d42 a9 00    lda #$00
4d44 20 c8 d4 jsr $d4c8
4d47 20 3c cd jsr $cd3c
4d4a 99 44 02 sta $0244,y
4d4d a9 89    lda #$89
4d4f 99 f2 00 sta $00f2,y
4d52 60       rts 
4d53 20 42 cd jsr $cd42
4d56 20 ec d3 jsr $d3ec
4d59 4c 94 c1 jmp $c194
4d5c 20 6f cc jsr $cc6f
4d5f 20 42 cd jsr $cd42
4d62 b9 44 02 lda $0244,y
4d65 99 3e 02 sta $023e,y
4d68 a9 ff    lda #$ff
4d6a 99 44 02 sta $0244,y
4d6d 4c 94 c1 jmp $c194
4d70 20 f2 cd jsr $cdf2
4d73 20 e8 d4 jsr $d4e8
4d76 a8       tay 
4d77 88       dey 
4d78 c9 02    cmp #$02
4d7a b0 02    bcs $4d7e
4d7c a0 01    ldy #$01
4d7e a9 00    lda #$00
4d80 20 c8 d4 jsr $d4c8
4d83 98       tya 
4d84 20 f1 cf jsr $cff1
4d87 8a       txa 
4d88 48       pha 
4d89 20 64 d4 jsr $d464
4d8c 68       pla 
4d8d aa       tax 
4d8e 20 ee d3 jsr $d3ee
4d91 4c 94 c1 jmp $c194
4d94 20 6f cc jsr $cc6f
4d97 20 f2 cd jsr $cdf2
4d9a 20 64 d4 jsr $d464
4d9d 4c 94 c1 jmp $c194
4da0 20 58 f2 jsr $f258
4da3 20 36 cd jsr $cd36
4da6 a9 00    lda #$00
4da8 85 6f    sta $6f
4daa a6 f9    ldx $f9
4dac bd e0 fe lda $fee0,x
4daf 85 70    sta $70
4db1 20 ba cd jsr $cdba
4db4 4c 94 c1 jmp $c194
4db7 6c 6f 00 jmp ($006f)
4dba 20 d2 cd jsr $cdd2
4dbd a5 f9    lda $f9
4dbf 0a       asl a
4dc0 aa       tax 
4dc1 ad 86 02 lda $0286
4dc4 95 99    sta $99,x
4dc6 20 2f d1 jsr $d12f
4dc9 20 ee d3 jsr $d3ee
4dcc 4c 94 c1 jmp $c194
4dcf a6 d3    ldx $d3
4dd1 e6 d3    inc $d3
4dd3 bd 85 02 lda $0285,x
4dd6 a8       tay 
4dd7 88       dey 
4dd8 88       dey 
4dd9 c0 0c    cpy #$0c
4ddb 90 05    bcc $4de2
4ddd a9 70    lda #$70
4ddf 4c c8 c1 jmp $c1c8
4de2 85 83    sta $83
4de4 20 eb d0 jsr $d0eb
4de7 b0 f4    bcs $4ddd
4de9 20 93 df jsr $df93
4dec 85 f9    sta $f9
4dee 60       rts 
4def 20 d2 cd jsr $cdd2
4df2 a6 d3    ldx $d3
4df4 bd 85 02 lda $0285,x
4df7 29 01    and #$01
4df9 85 7f    sta $7f
4dfb bd 87 02 lda $0287,x
4dfe 85 81    sta $81
4e00 bd 86 02 lda $0286,x
4e03 85 80    sta $80
4e05 20 5f d5 jsr $d55f
4e08 4c 00 c1 jmp $c100
4e0b 20 2c ce jsr $ce2c
4e0e 20 6e ce jsr $ce6e
4e11 a5 90    lda $90
4e13 85 d7    sta $d7
4e15 20 71 ce jsr $ce71
4e18 e6 d7    inc $d7
4e1a e6 d7    inc $d7
4e1c a5 8b    lda $8b
4e1e 85 d5    sta $d5
4e20 a5 90    lda $90
4e22 0a       asl a
4e23 18       clc 
4e24 69 10    adc #$10
4e26 85 d6    sta $d6
4e28 60       rts 
4e29 20 d9 ce jsr $ced9
4e2c 85 92    sta $92
4e2e a6 82    ldx $82
4e30 b5 b5    lda $b5,x
4e32 85 90    sta $90
4e34 b5 bb    lda $bb,x
4e36 85 91    sta $91
4e38 d0 04    bne $4e3e
4e3a a5 90    lda $90
4e3c f0 0b    beq $4e49
4e3e a5 90    lda $90
4e40 38       sec 
4e41 e9 01    sbc #$01
4e43 85 90    sta $90
4e45 b0 02    bcs $4e49
4e47 c6 91    dec $91
4e49 b5 c7    lda $c7,x
4e4b 85 6f    sta $6f
4e4d 46 6f    lsr $6f
4e4f 90 03    bcc $4e54
4e51 20 ed ce jsr $ceed
4e54 20 e5 ce jsr $cee5
4e57 a5 6f    lda $6f
4e59 d0 f2    bne $4e4d
4e5b a5 d4    lda $d4
4e5d 18       clc 
4e5e 65 8b    adc $8b
4e60 85 8b    sta $8b
4e62 90 06    bcc $4e6a
4e64 e6 8c    inc $8c
4e66 d0 02    bne $4e6a
4e68 e6 8d    inc $8d
4e6a 60       rts 
4e6b a9 fe    lda #$fe
4e6d 2c a9 78 bit $78a9
4e70 85 6f    sta $6f
4e72 a2 03    ldx #$03
4e74 b5 8f    lda $8f,x
4e76 48       pha 
4e77 b5 8a    lda $8a,x
4e79 95 8f    sta $8f,x
4e7b 68       pla 
4e7c 95 8a    sta $8a,x
4e7e ca       dex 
4e7f d0 f3    bne $4e74
4e81 20 d9 ce jsr $ced9
4e84 a2 00    ldx #$00
4e86 b5 90    lda $90,x
4e88 95 8f    sta $8f,x
4e8a e8       inx 
4e8b e0 04    cpx #$04
4e8d 90 f7    bcc $4e86
4e8f a9 00    lda #$00
4e91 85 92    sta $92
4e93 24 6f    bit $6f
4e95 30 09    bmi $4ea0
4e97 06 8f    asl $8f
4e99 08       php 
4e9a 46 8f    lsr $8f
4e9c 28       plp 
4e9d 20 e6 ce jsr $cee6
4ea0 20 ed ce jsr $ceed
4ea3 20 e5 ce jsr $cee5
4ea6 24 6f    bit $6f
4ea8 30 03    bmi $4ead
4eaa 20 e2 ce jsr $cee2
4ead a5 8f    lda $8f
4eaf 18       clc 
4eb0 65 90    adc $90
4eb2 85 90    sta $90
4eb4 90 06    bcc $4ebc
4eb6 e6 91    inc $91
4eb8 d0 02    bne $4ebc
4eba e6 92    inc $92
4ebc a5 92    lda $92
4ebe 05 91    ora $91
4ec0 d0 c2    bne $4e84
4ec2 a5 90    lda $90
4ec4 38       sec 
4ec5 e5 6f    sbc $6f
4ec7 90 0c    bcc $4ed5
4ec9 e6 8b    inc $8b
4ecb d0 06    bne $4ed3
4ecd e6 8c    inc $8c
4ecf d0 02    bne $4ed3
4ed1 e6 8d    inc $8d
4ed3 85 90    sta $90
4ed5 60       rts 
4ed6 a9 00    lda #$00
4ed8 85 8b    sta $8b
4eda 85 8c    sta $8c
4edc 85 8d    sta $8d
4ede 60       rts 
4edf 20 e5 ce jsr $cee5
4ee2 18       clc 
4ee3 26 90    rol $90
4ee5 26 91    rol $91
4ee7 26 92    rol $92
4ee9 60       rts 
4eea 18       clc 
4eeb a2 fd    ldx #$fd
4eed b5 8e    lda $8e,x
4eef 75 93    adc $93,x
4ef1 95 8e    sta $8e,x
4ef3 e8       inx 
4ef4 d0 f7    bne $4eed
4ef6 60       rts 
4ef7 a2 00    ldx #$00
4ef9 8a       txa 
4efa 95 fa    sta $fa,x
4efc e8       inx 
4efd e0 04    cpx #$04
4eff d0 f8    bne $4ef9
4f01 a9 06    lda #$06
4f03 95 fa    sta $fa,x
4f05 60       rts 
4f06 a0 04    ldy #$04
4f08 a6 82    ldx $82
4f0a b9 fa 00 lda $00fa,y
4f0d 96 fa    stx $fa,y
4f0f c5 82    cmp $82
4f11 f0 07    beq $4f1a
4f13 88       dey 
4f14 30 e1    bmi $4ef7
4f16 aa       tax 
4f17 4c 0d cf jmp $cf0d
4f1a 60       rts 
4f1b 20 09 cf jsr $cf09
4f1e 20 b7 df jsr $dfb7
4f21 d0 46    bne $4f69
4f23 20 d3 d1 jsr $d1d3
4f26 20 8e d2 jsr $d28e
4f29 30 48    bmi $4f73
4f2b 20 c2 df jsr $dfc2
4f2e a5 80    lda $80
4f30 48       pha 
4f31 a5 81    lda $81
4f33 48       pha 
4f34 a9 01    lda #$01
4f36 20 f6 d4 jsr $d4f6
4f39 85 81    sta $81
4f3b a9 00    lda #$00
4f3d 20 f6 d4 jsr $d4f6
4f40 85 80    sta $80
4f42 f0 1f    beq $4f63
4f44 20 25 d1 jsr $d125
4f47 f0 0b    beq $4f54
4f49 20 ab dd jsr $ddab
4f4c d0 06    bne $4f54
4f4e 20 8c cf jsr $cf8c
4f51 4c 5d cf jmp $cf5d
4f54 20 8c cf jsr $cf8c
4f57 20 57 de jsr $de57
4f5a 68       pla 
4f5b 85 81    sta $81
4f5d 68       pla 
4f5e 85 80    sta $80
4f60 4c 6f cf jmp $cf6f
4f63 68       pla 
4f64 85 81    sta $81
4f66 68       pla 
4f67 85 80    sta $80
4f69 20 8c cf jsr $cf8c
4f6c 20 93 df jsr $df93
4f6f aa       tax 
4f70 4c 99 d5 jmp $d599
4f73 a9 70    lda #$70
4f75 4c c8 c1 jmp $c1c8
4f78 20 09 cf jsr $cf09
4f7b 20 b7 df jsr $dfb7
4f7e d0 08    bne $4f88
4f80 20 8e d2 jsr $d28e
4f83 30 ee    bmi $4f73
4f85 20 c2 df jsr $dfc2
4f88 60       rts 
4f89 a6 82    ldx $82
4f8b b5 a7    lda $a7,x
4f8d 49 80    eor #$80
4f8f 95 a7    sta $a7,x
4f91 b5 ae    lda $ae,x
4f93 49 80    eor #$80
4f95 95 ae    sta $ae,x
4f97 60       rts 
4f98 a2 12    ldx #$12
4f9a 86 83    stx $83
4f9c 20 07 d1 jsr $d107
4f9f 20 00 c1 jsr $c100
4fa2 20 25 d1 jsr $d125
4fa5 90 05    bcc $4fac
4fa7 a9 20    lda #$20
4fa9 20 9d dd jsr $dd9d
4fac a5 83    lda $83
4fae c9 0f    cmp #$0f
4fb0 f0 23    beq $4fd5
4fb2 d0 08    bne $4fbc
4fb4 a5 84    lda $84
4fb6 29 8f    and #$8f
4fb8 c9 0f    cmp #$0f
4fba b0 19    bcs $4fd5
4fbc 20 25 d1 jsr $d125
4fbf b0 05    bcs $4fc6
4fc1 a5 85    lda $85
4fc3 4c 9d d1 jmp $d19d
4fc6 d0 03    bne $4fcb
4fc8 4c ab e0 jmp $e0ab
4fcb a5 85    lda $85
4fcd 20 f1 cf jsr $cff1
4fd0 a4 82    ldy $82
4fd2 4c ee d3 jmp $d3ee
4fd5 a9 04    lda #$04
4fd7 85 82    sta $82
4fd9 20 e8 d4 jsr $d4e8
4fdc c9 2a    cmp #$2a
4fde f0 05    beq $4fe5
4fe0 a5 85    lda $85
4fe2 20 f1 cf jsr $cff1
4fe5 a5 f8    lda $f8
4fe7 f0 01    beq $4fea
4fe9 60       rts 
4fea ee 55 02 inc $0255
4fed 60       rts 
4fee 48       pha 
4fef 20 93 df jsr $df93
4ff2 10 06    bpl $4ffa
4ff4 68       pla 
4ff5 a9 61    lda #$61
4ff7 4c c8 c1 jmp $c1c8
4ffa 0a       asl a
4ffb aa       tax 
4ffc 68       pla 
4ffd 81 99    sta ($99,x)
4fff f6 99    inc $99,x
5001 60       rts 
5002 20 d1 c1 jsr $c1d1
5005 20 42 d0 jsr $d042
5008 4c 94 c1 jmp $c194
500b 20 0f f1 jsr $f10f
500e a8       tay 
500f b6 a7    ldx $a7,y
5011 e0 ff    cpx #$ff
5013 d0 14    bne $5029
5015 48       pha 
5016 20 8e d2 jsr $d28e
5019 aa       tax 
501a 10 05    bpl $5021
501c a9 70    lda #$70
501e 20 48 e6 jsr $e648
5021 68       pla 
5022 a8       tay 
5023 8a       txa 
5024 09 80    ora #$80
5026 99 a7 00 sta $00a7,y
5029 8a       txa 
502a 29 0f    and #$0f
502c 85 f9    sta $f9
502e a2 00    ldx #$00
5030 86 81    stx $81
5032 ae 85 fe ldx $fe85
5035 86 80    stx $80
5037 20 d3 d6 jsr $d6d3
503a a9 b0    lda #$b0
503c 4c 8c d5 jmp $d58c
503f 20 d1 f0 jsr $f0d1
5042 20 13 d3 jsr $d313
5045 20 0e d0 jsr $d00e
5048 a6 7f    ldx $7f
504a a9 00    lda #$00
504c 9d 51 02 sta $0251,x
504f 8a       txa 
5050 0a       asl a
5051 aa       tax 
5052 a5 16    lda $16
5054 95 12    sta $12,x
5056 a5 17    lda $17
5058 95 13    sta $13,x
505a 20 86 d5 jsr $d586
505d a5 f9    lda $f9
505f 0a       asl a
5060 aa       tax 
5061 a9 02    lda #$02
5063 95 99    sta $99,x
5065 a1 99    lda ($99,x)
5067 a6 7f    ldx $7f
5069 9d 01 01 sta $0101,x
506c a9 00    lda #$00
506e 95 1c    sta $1c,x
5070 95 ff    sta $ff,x
5072 20 3a ef jsr $ef3a
5075 a0 04    ldy #$04
5077 a9 00    lda #$00
5079 aa       tax 
507a 18       clc 
507b 71 6d    adc ($6d),y
507d 90 01    bcc $5080
507f e8       inx 
5080 c8       iny 
5081 c8       iny 
5082 c8       iny 
5083 c8       iny 
5084 c0 48    cpy #$48
5086 f0 f8    beq $5080
5088 c0 90    cpy #$90
508a 4c 60 fb jmp $fb60
508d 8a       txa 
508e a6 7f    ldx $7f
5090 9d fc 02 sta $02fc,x
5093 68       pla 
5094 9d fa 02 sta $02fa,x
5097 60       rts 
5098 20 d0 d6 jsr $d6d0
509b 20 c3 d0 jsr $d0c3
509e 20 99 d5 jsr $d599
50a1 20 37 d1 jsr $d137
50a4 85 80    sta $80
50a6 20 37 d1 jsr $d137
50a9 85 81    sta $81
50ab 60       rts 
50ac 20 9b d0 jsr $d09b
50af a5 80    lda $80
50b1 d0 01    bne $50b4
50b3 60       rts 
50b4 20 1e cf jsr $cf1e
50b7 20 d0 d6 jsr $d6d0
50ba 20 c3 d0 jsr $d0c3
50bd 4c 1e cf jmp $cf1e
50c0 a9 80    lda #$80
50c2 d0 02    bne $50c6
50c4 a9 90    lda #$90
50c6 8d 4d 02 sta $024d
50c9 20 93 df jsr $df93
50cc aa       tax 
50cd 20 06 d5 jsr $d506
50d0 8a       txa 
50d1 48       pha 
50d2 0a       asl a
50d3 aa       tax 
50d4 a9 00    lda #$00
50d6 95 99    sta $99,x
50d8 20 25 d1 jsr $d125
50db c9 04    cmp #$04
50dd b0 06    bcs $50e5
50df f6 b5    inc $b5,x
50e1 d0 02    bne $50e5
50e3 f6 bb    inc $bb,x
50e5 68       pla 
50e6 aa       tax 
50e7 60       rts 
50e8 a5 83    lda $83
50ea c9 13    cmp #$13
50ec 90 02    bcc $50f0
50ee 29 0f    and #$0f
50f0 c9 0f    cmp #$0f
50f2 d0 02    bne $50f6
50f4 a9 10    lda #$10
50f6 aa       tax 
50f7 38       sec 
50f8 bd 2b 02 lda $022b,x
50fb 30 06    bmi $5103
50fd 29 0f    and #$0f
50ff 85 82    sta $82
5101 aa       tax 
5102 18       clc 
5103 60       rts 
5104 a5 83    lda $83
5106 c9 13    cmp #$13
5108 90 02    bcc $510c
510a 29 0f    and #$0f
510c aa       tax 
510d bd 2b 02 lda $022b,x
5110 a8       tay 
5111 0a       asl a
5112 90 0a    bcc $511e
5114 30 0a    bmi $5120
5116 98       tya 
5117 29 0f    and #$0f
5119 85 82    sta $82
511b aa       tax 
511c 18       clc 
511d 60       rts 
511e 30 f6    bmi $5116
5120 38       sec 
5121 60       rts 
5122 a6 82    ldx $82
5124 b5 ec    lda $ec,x
5126 4a       lsr a
5127 29 07    and #$07
5129 c9 04    cmp #$04
512b 60       rts 
512c 20 93 df jsr $df93
512f 0a       asl a
5130 aa       tax 
5131 a4 82    ldy $82
5133 60       rts 
5134 20 2f d1 jsr $d12f
5137 b9 44 02 lda $0244,y
513a f0 12    beq $514e
513c a1 99    lda ($99,x)
513e 48       pha 
513f b5 99    lda $99,x
5141 d9 44 02 cmp $0244,y
5144 d0 04    bne $514a
5146 a9 ff    lda #$ff
5148 95 99    sta $99,x
514a 68       pla 
514b f6 99    inc $99,x
514d 60       rts 
514e a1 99    lda ($99,x)
5150 f6 99    inc $99,x
5152 60       rts 
5153 20 37 d1 jsr $d137
5156 d0 36    bne $518e
5158 85 85    sta $85
515a b9 44 02 lda $0244,y
515d f0 08    beq $5167
515f a9 80    lda #$80
5161 99 f2 00 sta $00f2,y
5164 a5 85    lda $85
5166 60       rts 
5167 20 1e cf jsr $cf1e
516a a9 00    lda #$00
516c 20 c8 d4 jsr $d4c8
516f 20 37 d1 jsr $d137
5172 c9 00    cmp #$00
5174 f0 19    beq $518f
5176 85 80    sta $80
5178 20 37 d1 jsr $d137
517b 85 81    sta $81
517d 20 1e cf jsr $cf1e
5180 20 d3 d1 jsr $d1d3
5183 20 d0 d6 jsr $d6d0
5186 20 c3 d0 jsr $d0c3
5189 20 1e cf jsr $cf1e
518c a5 85    lda $85
518e 60       rts 
518f 20 37 d1 jsr $d137
5192 a4 82    ldy $82
5194 99 44 02 sta $0244,y
5197 a5 85    lda $85
5199 60       rts 
519a 20 f1 cf jsr $cff1
519d f0 01    beq $51a0
519f 60       rts 
51a0 20 d3 d1 jsr $d1d3
51a3 20 1e f1 jsr $f11e
51a6 a9 00    lda #$00
51a8 20 c8 d4 jsr $d4c8
51ab a5 80    lda $80
51ad 20 f1 cf jsr $cff1
51b0 a5 81    lda $81
51b2 20 f1 cf jsr $cff1
51b5 20 c7 d0 jsr $d0c7
51b8 20 1e cf jsr $cf1e
51bb 20 d0 d6 jsr $d6d0
51be a9 02    lda #$02
51c0 4c c8 d4 jmp $d4c8
51c3 85 6f    sta $6f
51c5 20 e8 d4 jsr $d4e8
51c8 18       clc 
51c9 65 6f    adc $6f
51cb 95 99    sta $99,x
51cd 85 94    sta $94
51cf 60       rts 
51d0 20 93 df jsr $df93
51d3 aa       tax 
51d4 bd 5b 02 lda $025b,x
51d7 29 01    and #$01
51d9 85 7f    sta $7f
51db 60       rts 
51dc 38       sec 
51dd b0 01    bcs $51e0
51df 18       clc 
51e0 08       php 
51e1 85 6f    sta $6f
51e3 20 27 d2 jsr $d227
51e6 20 7f d3 jsr $d37f
51e9 85 82    sta $82
51eb a6 83    ldx $83
51ed 28       plp 
51ee 90 02    bcc $51f2
51f0 09 80    ora #$80
51f2 9d 2b 02 sta $022b,x
51f5 29 3f    and #$3f
51f7 a8       tay 
51f8 a9 ff    lda #$ff
51fa 99 a7 00 sta $00a7,y
51fd 99 ae 00 sta $00ae,y
5200 99 cd 00 sta $00cd,y
5203 c6 6f    dec $6f
5205 30 1c    bmi $5223
5207 20 8e d2 jsr $d28e
520a 10 08    bpl $5214
520c 20 5a d2 jsr $d25a
520f a9 70    lda #$70
5211 4c c8 c1 jmp $c1c8
5214 99 a7 00 sta $00a7,y
5217 c6 6f    dec $6f
5219 30 08    bmi $5223
521b 20 8e d2 jsr $d28e
521e 30 ec    bmi $520c
5220 99 ae 00 sta $00ae,y
5223 60       rts 
5224 a5 83    lda $83
5226 c9 0f    cmp #$0f
5228 d0 01    bne $522b
522a 60       rts 
522b a6 83    ldx $83
522d bd 2b 02 lda $022b,x
5230 c9 ff    cmp #$ff
5232 f0 22    beq $5256
5234 29 3f    and #$3f
5236 85 82    sta $82
5238 a9 ff    lda #$ff
523a 9d 2b 02 sta $022b,x
523d a6 82    ldx $82
523f a9 00    lda #$00
5241 95 f2    sta $f2,x
5243 20 5a d2 jsr $d25a
5246 a6 82    ldx $82
5248 a9 01    lda #$01
524a ca       dex 
524b 30 03    bmi $5250
524d 0a       asl a
524e d0 fa    bne $524a
5250 0d 56 02 ora $0256
5253 8d 56 02 sta $0256
5256 60       rts 
5257 a6 82    ldx $82
5259 b5 a7    lda $a7,x
525b c9 ff    cmp #$ff
525d f0 09    beq $5268
525f 48       pha 
5260 a9 ff    lda #$ff
5262 95 a7    sta $a7,x
5264 68       pla 
5265 20 f3 d2 jsr $d2f3
5268 a6 82    ldx $82
526a b5 ae    lda $ae,x
526c c9 ff    cmp #$ff
526e f0 09    beq $5279
5270 48       pha 
5271 a9 ff    lda #$ff
5273 95 ae    sta $ae,x
5275 68       pla 
5276 20 f3 d2 jsr $d2f3
5279 a6 82    ldx $82
527b b5 cd    lda $cd,x
527d c9 ff    cmp #$ff
527f f0 09    beq $528a
5281 48       pha 
5282 a9 ff    lda #$ff
5284 95 cd    sta $cd,x
5286 68       pla 
5287 20 f3 d2 jsr $d2f3
528a 60       rts 
528b 98       tya 
528c 48       pha 
528d a0 01    ldy #$01
528f 20 ba d2 jsr $d2ba
5292 10 0c    bpl $52a0
5294 88       dey 
5295 20 ba d2 jsr $d2ba
5298 10 06    bpl $52a0
529a 20 39 d3 jsr $d339
529d aa       tax 
529e 30 13    bmi $52b3
52a0 b5 00    lda $00,x
52a2 30 fc    bmi $52a0
52a4 a5 7f    lda $7f
52a6 95 00    sta $00,x
52a8 9d 5b 02 sta $025b,x
52ab 8a       txa 
52ac 0a       asl a
52ad a8       tay 
52ae a9 02    lda #$02
52b0 99 99 00 sta $0099,y
52b3 68       pla 
52b4 a8       tay 
52b5 8a       txa 
52b6 60       rts 
52b7 a2 07    ldx #$07
52b9 b9 4f 02 lda $024f,y
52bc 3d e9 ef and $efe9,x
52bf f0 04    beq $52c5
52c1 ca       dex 
52c2 10 f5    bpl $52b9
52c4 60       rts 
52c5 b9 4f 02 lda $024f,y
52c8 5d e9 ef eor $efe9,x
52cb 99 4f 02 sta $024f,y
52ce 8a       txa 
52cf 88       dey 
52d0 30 03    bmi $52d5
52d2 18       clc 
52d3 69 08    adc #$08
52d5 aa       tax 
52d6 60       rts 
52d7 a6 82    ldx $82
52d9 b5 a7    lda $a7,x
52db 30 09    bmi $52e6
52dd 8a       txa 
52de 18       clc 
52df 69 07    adc #$07
52e1 aa       tax 
52e2 b5 a7    lda $a7,x
52e4 10 f0    bpl $52d6
52e6 c9 ff    cmp #$ff
52e8 f0 ec    beq $52d6
52ea 48       pha 
52eb a9 ff    lda #$ff
52ed 95 a7    sta $a7,x
52ef 68       pla 
52f0 29 0f    and #$0f
52f2 a8       tay 
52f3 c8       iny 
52f4 a2 10    ldx #$10
52f6 6e 50 02 ror $0250
52f9 6e 4f 02 ror $024f
52fc 88       dey 
52fd d0 01    bne $5300
52ff 18       clc 
5300 ca       dex 
5301 10 f3    bpl $52f6
5303 60       rts 
5304 a9 0e    lda #$0e
5306 85 83    sta $83
5308 20 27 d2 jsr $d227
530b c6 83    dec $83
530d d0 f9    bne $5308
530f 60       rts 
5310 a9 0e    lda #$0e
5312 85 83    sta $83
5314 a6 83    ldx $83
5316 bd 2b 02 lda $022b,x
5319 c9 ff    cmp #$ff
531b f0 14    beq $5331
531d 29 3f    and #$3f
531f 85 82    sta $82
5321 20 93 df jsr $df93
5324 aa       tax 
5325 bd 5b 02 lda $025b,x
5328 29 01    and #$01
532a c5 7f    cmp $7f
532c d0 03    bne $5331
532e 20 27 d2 jsr $d227
5331 c6 83    dec $83
5333 10 df    bpl $5314
5335 60       rts 
5336 a5 6f    lda $6f
5338 48       pha 
5339 a0 00    ldy #$00
533b b6 fa    ldx $fa,y
533d b5 a7    lda $a7,x
533f 10 04    bpl $5345
5341 c9 ff    cmp #$ff
5343 d0 16    bne $535b
5345 8a       txa 
5346 18       clc 
5347 69 07    adc #$07
5349 aa       tax 
534a b5 a7    lda $a7,x
534c 10 04    bpl $5352
534e c9 ff    cmp #$ff
5350 d0 09    bne $535b
5352 c8       iny 
5353 c0 05    cpy #$05
5355 90 e4    bcc $533b
5357 a2 ff    ldx #$ff
5359 d0 1c    bne $5377
535b 86 6f    stx $6f
535d 29 3f    and #$3f
535f aa       tax 
5360 b5 00    lda $00,x
5362 30 fc    bmi $5360
5364 c9 02    cmp #$02
5366 90 08    bcc $5370
5368 a6 6f    ldx $6f
536a e0 07    cpx #$07
536c 90 d7    bcc $5345
536e b0 e2    bcs $5352
5370 a4 6f    ldy $6f
5372 a9 ff    lda #$ff
5374 99 a7 00 sta $00a7,y
5377 68       pla 
5378 85 6f    sta $6f
537a 8a       txa 
537b 60       rts 
537c a0 00    ldy #$00
537e a9 01    lda #$01
5380 2c 56 02 bit $0256
5383 d0 09    bne $538e
5385 c8       iny 
5386 0a       asl a
5387 d0 f7    bne $5380
5389 a9 70    lda #$70
538b 4c c8 c1 jmp $c1c8
538e 49 ff    eor #$ff
5390 2d 56 02 and $0256
5393 8d 56 02 sta $0256
5396 98       tya 
5397 60       rts 
5398 20 eb d0 jsr $d0eb
539b 20 00 c1 jsr $c100
539e 20 aa d3 jsr $d3aa
53a1 a6 82    ldx $82
53a3 bd 3e 02 lda $023e,x
53a6 60       rts 
53a7 a6 82    ldx $82
53a9 20 25 d1 jsr $d125
53ac d0 03    bne $53b1
53ae 4c 20 e1 jmp $e120
53b1 a5 83    lda $83
53b3 c9 0f    cmp #$0f
53b5 f0 5a    beq $5411
53b7 b5 f2    lda $f2,x
53b9 29 08    and #$08
53bb d0 13    bne $53d0
53bd 20 25 d1 jsr $d125
53c0 c9 07    cmp #$07
53c2 d0 07    bne $53cb
53c4 a9 89    lda #$89
53c6 95 f2    sta $f2,x
53c8 4c de d3 jmp $d3de
53cb a9 00    lda #$00
53cd 95 f2    sta $f2,x
53cf 60       rts 
53d0 a5 83    lda $83
53d2 f0 32    beq $5406
53d4 20 25 d1 jsr $d125
53d7 c9 04    cmp #$04
53d9 90 22    bcc $53fd
53db 20 2f d1 jsr $d12f
53de b5 99    lda $99,x
53e0 d9 44 02 cmp $0244,y
53e3 d0 04    bne $53e9
53e5 a9 00    lda #$00
53e7 95 99    sta $99,x
53e9 f6 99    inc $99,x
53eb a1 99    lda ($99,x)
53ed 99 3e 02 sta $023e,y
53f0 b5 99    lda $99,x
53f2 d9 44 02 cmp $0244,y
53f5 d0 05    bne $53fc
53f7 a9 81    lda #$81
53f9 99 f2 00 sta $00f2,y
53fc 60       rts 
53fd 20 56 d1 jsr $d156
5400 a6 82    ldx $82
5402 9d 3e 02 sta $023e,x
5405 60       rts 
5406 ad 54 02 lda $0254
5409 f0 f2    beq $53fd
540b 20 67 ed jsr $ed67
540e 4c 03 d4 jmp $d403
5411 20 e8 d4 jsr $d4e8
5414 c9 d4    cmp #$d4
5416 d0 18    bne $5430
5418 a5 95    lda $95
541a c9 02    cmp #$02
541c d0 12    bne $5430
541e a9 0d    lda #$0d
5420 85 85    sta $85
5422 20 23 c1 jsr $c123
5425 a9 00    lda #$00
5427 20 c1 e6 jsr $e6c1
542a c6 a5    dec $a5
542c a9 80    lda #$80
542e d0 12    bne $5442
5430 20 37 d1 jsr $d137
5433 85 85    sta $85
5435 d0 09    bne $5440
5437 a9 d4    lda #$d4
5439 20 c8 d4 jsr $d4c8
543c a9 02    lda #$02
543e 95 9a    sta $9a,x
5440 a9 88    lda #$88
5442 85 f7    sta $f7
5444 a5 85    lda $85
5446 8d 43 02 sta $0243
5449 60       rts 
544a 20 93 df jsr $df93
544d 0a       asl a
544e aa       tax 
544f a9 00    lda #$00
5451 95 99    sta $99,x
5453 a1 99    lda ($99,x)
5455 f0 05    beq $545c
5457 d6 99    dec $99,x
5459 4c 56 d1 jmp $d156
545c 60       rts 
545d a9 80    lda #$80
545f d0 02    bne $5463
5461 a9 90    lda #$90
5463 05 7f    ora $7f
5465 8d 4d 02 sta $024d
5468 a5 f9    lda $f9
546a 20 d3 d6 jsr $d6d3
546d a6 f9    ldx $f9
546f 4c 93 d5 jmp $d593
5472 a9 01    lda #$01
5474 8d 4a 02 sta $024a
5477 a9 11    lda #$11
5479 85 83    sta $83
547b 20 46 dc jsr $dc46
547e a9 02    lda #$02
5480 4c c8 d4 jmp $d4c8
5483 a9 12    lda #$12
5485 85 83    sta $83
5487 4c da dc jmp $dcda
548a 20 3b de jsr $de3b
548d a9 01    lda #$01
548f 85 6f    sta $6f
5491 a5 69    lda $69
5493 48       pha 
5494 a9 03    lda #$03
5496 85 69    sta $69
5498 20 2d f1 jsr $f12d
549b 68       pla 
549c 85 69    sta $69
549e a9 00    lda #$00
54a0 20 c8 d4 jsr $d4c8
54a3 a5 80    lda $80
54a5 20 f1 cf jsr $cff1
54a8 a5 81    lda $81
54aa 20 f1 cf jsr $cff1
54ad 20 c7 d0 jsr $d0c7
54b0 20 99 d5 jsr $d599
54b3 a9 00    lda #$00
54b5 20 c8 d4 jsr $d4c8
54b8 20 f1 cf jsr $cff1
54bb d0 fb    bne $54b8
54bd 20 f1 cf jsr $cff1
54c0 a9 ff    lda #$ff
54c2 4c f1 cf jmp $cff1
54c5 85 6f    sta $6f
54c7 20 93 df jsr $df93
54ca 0a       asl a
54cb aa       tax 
54cc b5 9a    lda $9a,x
54ce 85 95    sta $95
54d0 a5 6f    lda $6f
54d2 95 99    sta $99,x
54d4 85 94    sta $94
54d6 60       rts 
54d7 a9 11    lda #$11
54d9 85 83    sta $83
54db 20 27 d2 jsr $d227
54de a9 12    lda #$12
54e0 85 83    sta $83
54e2 4c 27 d2 jmp $d227
54e5 20 93 df jsr $df93
54e8 0a       asl a
54e9 aa       tax 
54ea b5 9a    lda $9a,x
54ec 85 95    sta $95
54ee b5 99    lda $99,x
54f0 85 94    sta $94
54f2 60       rts 
54f3 85 71    sta $71
54f5 20 93 df jsr $df93
54f8 aa       tax 
54f9 bd e0 fe lda $fee0,x
54fc 85 72    sta $72
54fe a0 00    ldy #$00
5500 b1 71    lda ($71),y
5502 60       rts 
5503 bd 5b 02 lda $025b,x
5506 29 01    and #$01
5508 0d 4d 02 ora $024d
550b 48       pha 
550c 86 f9    stx $f9
550e 8a       txa 
550f 0a       asl a
5510 aa       tax 
5511 b5 07    lda $07,x
5513 8d 4d 02 sta $024d
5516 b5 06    lda $06,x
5518 f0 2d    beq $5547
551a cd 23 60 cmp $6023
551d b0 28    bcs $5547
551f aa       tax 
5520 68       pla 
5521 48       pha 
5522 29 f0    and #$f0
5524 c9 90    cmp #$90
5526 d0 4f    bne $5577
5528 68       pla 
5529 48       pha 
552a 4a       lsr a
552b b0 05    bcs $5532
552d ad 01 01 lda $0101
5530 90 03    bcc $5535
5532 ad 02 01 lda $0102
5535 f0 05    beq $553c
5537 cd d5 fe cmp $fed5
553a d0 33    bne $556f
553c 8a       txa 
553d 20 4b f2 jsr $f24b
5540 cd 4d 02 cmp $024d
5543 f0 02    beq $5547
5545 b0 30    bcs $5577
5547 20 52 d5 jsr $d552
554a a9 66    lda #$66
554c 4c 45 e6 jmp $e645
554f a5 f9    lda $f9
5551 0a       asl a
5552 aa       tax 
5553 b5 06    lda $06,x
5555 85 80    sta $80
5557 b5 07    lda $07,x
5559 85 81    sta $81
555b 60       rts 
555c a5 80    lda $80
555e f0 ea    beq $554a
5560 cd 23 60 cmp $6023
5563 b0 e5    bcs $554a
5565 20 4b f2 jsr $f24b
5568 c5 81    cmp $81
556a f0 de    beq $554a
556c 90 dc    bcc $554a
556e 60       rts 
556f 20 52 d5 jsr $d552
5572 a9 73    lda #$73
5574 4c 45 e6 jmp $e645
5577 a6 f9    ldx $f9
5579 68       pla 
557a 8d 4d 02 sta $024d
557d 95 00    sta $00,x
557f 9d 5b 02 sta $025b,x
5582 60       rts 
5583 a9 80    lda #$80
5585 d0 02    bne $5589
5587 a9 90    lda #$90
5589 05 7f    ora $7f
558b a6 f9    ldx $f9
558d 8d 4d 02 sta $024d
5590 ad 4d 02 lda $024d
5593 20 0e d5 jsr $d50e
5596 20 a6 d5 jsr $d5a6
5599 b0 fb    bcs $5596
559b 48       pha 
559c a9 00    lda #$00
559e 8d 98 02 sta $0298
55a1 68       pla 
55a2 60       rts 
55a3 b5 00    lda $00,x
55a5 30 1a    bmi $55c1
55a7 c9 02    cmp #$02
55a9 90 14    bcc $55bf
55ab c9 08    cmp #$08
55ad f0 08    beq $55b7
55af c9 0b    cmp #$0b
55b1 f0 04    beq $55b7
55b3 c9 0f    cmp #$0f
55b5 d0 0c    bne $55c3
55b7 2c 98 02 bit $0298
55ba 30 03    bmi $55bf
55bc 4c 3f d6 jmp $d63f
55bf 18       clc 
55c0 60       rts 
55c1 38       sec 
55c2 60       rts 
55c3 98       tya 
55c4 48       pha 
55c5 a5 7f    lda $7f
55c7 48       pha 
55c8 bd 5b 02 lda $025b,x
55cb 29 01    and #$01
55cd 85 7f    sta $7f
55cf a8       tay 
55d0 b9 ca fe lda $feca,y
55d3 8d 6d 02 sta $026d
55d6 20 a6 d6 jsr $d6a6
55d9 c9 02    cmp #$02
55db b0 03    bcs $55e0
55dd 4c 6d d6 jmp $d66d
55e0 bd 5b 02 lda $025b,x
55e3 29 f0    and #$f0
55e5 48       pha 
55e6 c9 90    cmp #$90
55e8 d0 07    bne $55f1
55ea a5 7f    lda $7f
55ec 09 b8    ora #$b8
55ee 9d 5b 02 sta $025b,x
55f1 24 6a    bit $6a
55f3 70 39    bvs $562e
55f5 a9 00    lda #$00
55f7 8d 99 02 sta $0299
55fa 8d 9a 02 sta $029a
55fd ac 99 02 ldy $0299
5600 ad 9a 02 lda $029a
5603 38       sec 
5604 f9 db fe sbc $fedb,y
5607 8d 9a 02 sta $029a
560a b9 db fe lda $fedb,y
560d 20 76 d6 jsr $d676
5610 ee 99 02 inc $0299
5613 20 a6 d6 jsr $d6a6
5616 c9 02    cmp #$02
5618 90 08    bcc $5622
561a ac 99 02 ldy $0299
561d b9 db fe lda $fedb,y
5620 d0 db    bne $55fd
5622 ad 9a 02 lda $029a
5625 20 76 d6 jsr $d676
5628 b5 00    lda $00,x
562a c9 02    cmp #$02
562c 90 2b    bcc $5659
562e 24 6a    bit $6a
5630 10 0f    bpl $5641
5632 68       pla 
5633 c9 90    cmp #$90
5635 d0 05    bne $563c
5637 05 7f    ora $7f
5639 9d 5b 02 sta $025b,x
563c b5 00    lda $00,x
563e 20 0a e6 jsr $e60a
5641 68       pla 
5642 2c 98 02 bit $0298
5645 30 23    bmi $566a
5647 48       pha 
5648 a9 c0    lda #$c0
564a 05 7f    ora $7f
564c 95 00    sta $00,x
564e b5 00    lda $00,x
5650 30 fc    bmi $564e
5652 20 a6 d6 jsr $d6a6
5655 c9 02    cmp #$02
5657 b0 d9    bcs $5632
5659 68       pla 
565a c9 90    cmp #$90
565c d0 0c    bne $566a
565e 05 7f    ora $7f
5660 9d 5b 02 sta $025b,x
5663 20 a6 d6 jsr $d6a6
5666 c9 02    cmp #$02
5668 b0 d2    bcs $563c
566a 68       pla 
566b 85 7f    sta $7f
566d 68       pla 
566e a8       tay 
566f b5 00    lda $00,x
5671 18       clc 
5672 60       rts 
5673 c9 00    cmp #$00
5675 f0 18    beq $568f
5677 30 0c    bmi $5685
5679 a0 01    ldy #$01
567b 20 93 d6 jsr $d693
567e 38       sec 
567f e9 01    sbc #$01
5681 d0 f6    bne $5679
5683 f0 0a    beq $568f
5685 a0 ff    ldy #$ff
5687 20 93 d6 jsr $d693
568a 18       clc 
568b 69 01    adc #$01
568d d0 f6    bne $5685
568f 60       rts 
5690 48       pha 
5691 98       tya 
5692 a4 7f    ldy $7f
5694 99 fe 02 sta $02fe,y
5697 d9 fe 02 cmp $02fe,y
569a f0 fb    beq $5697
569c a9 00    lda #$00
569e 99 fe 02 sta $02fe,y
56a1 68       pla 
56a2 60       rts 
56a3 a5 6a    lda $6a
56a5 29 3f    and #$3f
56a7 a8       tay 
56a8 ad 6d 02 lda $026d
56ab 4d 00 1c eor $1c00
56ae 8d 00 1c sta $1c00
56b1 bd 5b 02 lda $025b,x
56b4 95 00    sta $00,x
56b6 b5 00    lda $00,x
56b8 30 fc    bmi $56b6
56ba c9 02    cmp #$02
56bc 90 03    bcc $56c1
56be 88       dey 
56bf d0 e7    bne $56a8
56c1 48       pha 
56c2 ad 6d 02 lda $026d
56c5 0d 00 1c ora $1c00
56c8 8d 00 1c sta $1c00
56cb 68       pla 
56cc 60       rts 
56cd 20 93 df jsr $df93
56d0 0a       asl a
56d1 a8       tay 
56d2 a5 80    lda $80
56d4 99 06 00 sta $0006,y
56d7 a5 81    lda $81
56d9 99 07 00 sta $0007,y
56dc a5 7f    lda $7f
56de 0a       asl a
56df aa       tax 
56e0 60       rts 
56e1 a5 83    lda $83
56e3 48       pha 
56e4 a5 82    lda $82
56e6 48       pha 
56e7 a5 81    lda $81
56e9 48       pha 
56ea a5 80    lda $80
56ec 48       pha 
56ed a9 11    lda #$11
56ef 85 83    sta $83
56f1 20 3b de jsr $de3b
56f4 ad 4a 02 lda $024a
56f7 48       pha 
56f8 a5 e2    lda $e2
56fa 29 01    and #$01
56fc 85 7f    sta $7f
56fe a6 f9    ldx $f9
5700 5d 5b 02 eor $025b,x
5703 4a       lsr a
5704 90 0c    bcc $5712
5706 a2 01    ldx #$01
5708 8e 92 02 stx $0292
570b 20 ac c5 jsr $c5ac
570e f0 1d    beq $572d
5710 d0 28    bne $573a
5712 ad 91 02 lda $0291
5715 f0 0c    beq $5723
5717 c5 81    cmp $81
5719 f0 1f    beq $573a
571b 85 81    sta $81
571d 20 60 d4 jsr $d460
5720 4c 3d d7 jmp $d73d
5723 a9 01    lda #$01
5725 8d 92 02 sta $0292
5728 20 17 c6 jsr $c617
572b d0 0d    bne $573a
572d 20 8d d4 jsr $d48d
5730 a5 81    lda $81
5732 8d 91 02 sta $0291
5735 a9 02    lda #$02
5737 8d 92 02 sta $0292
573a ad 92 02 lda $0292
573d 20 c8 d4 jsr $d4c8
5740 68       pla 
5741 8d 4a 02 sta $024a
5744 c9 04    cmp #$04
5746 d0 02    bne $574a
5748 09 80    ora #$80
574a 20 f1 cf jsr $cff1
574d 68       pla 
574e 8d 80 02 sta $0280
5751 20 f1 cf jsr $cff1
5754 68       pla 
5755 8d 85 02 sta $0285
5758 20 f1 cf jsr $cff1
575b 20 93 df jsr $df93
575e a8       tay 
575f ad 7a 02 lda $027a
5762 aa       tax 
5763 a9 10    lda #$10
5765 20 6e c6 jsr $c66e
5768 a0 10    ldy #$10
576a a9 00    lda #$00
576c 91 94    sta ($94),y
576e c8       iny 
576f c0 1b    cpy #$1b
5771 90 f9    bcc $576c
5773 ad 4a 02 lda $024a
5776 c9 04    cmp #$04
5778 d0 13    bne $578d
577a a0 10    ldy #$10
577c ad 59 02 lda $0259
577f 91 94    sta ($94),y
5781 c8       iny 
5782 ad 5a 02 lda $025a
5785 91 94    sta ($94),y
5787 c8       iny 
5788 ad 58 02 lda $0258
578b 91 94    sta ($94),y
578d 20 64 d4 jsr $d464
5790 68       pla 
5791 85 82    sta $82
5793 aa       tax 
5794 68       pla 
5795 85 83    sta $83
5797 ad 91 02 lda $0291
579a 85 d8    sta $d8
579c 9d 60 02 sta $0260,x
579f ad 92 02 lda $0292
57a2 85 dd    sta $dd
57a4 9d 66 02 sta $0266,x
57a7 ad 4a 02 lda $024a
57aa 85 e7    sta $e7
57ac a5 7f    lda $7f
57ae 85 e2    sta $e2
57b0 60       rts 
57b1 a5 83    lda $83
57b3 8d 4c 02 sta $024c
57b6 20 b3 c2 jsr $c2b3
57b9 8e 2a 02 stx $022a
57bc ae 00 02 ldx $0200
57bf ad 4c 02 lda $024c
57c2 d0 2c    bne $57f0
57c4 e0 2a    cpx #$2a
57c6 d0 28    bne $57f0
57c8 a5 7e    lda $7e
57ca f0 4d    beq $5819
57cc 85 80    sta $80
57ce ad 6e 02 lda $026e
57d1 85 7f    sta $7f
57d3 85 e2    sta $e2
57d5 a9 02    lda #$02
57d7 85 e7    sta $e7
57d9 ad 6f 02 lda $026f
57dc 85 81    sta $81
57de 20 00 c1 jsr $c100
57e1 20 46 dc jsr $dc46
57e4 a9 04    lda #$04
57e6 05 7f    ora $7f
57e8 a6 82    ldx $82
57ea 99 ec 00 sta $00ec,y
57ed 4c 94 c1 jmp $c194
57f0 e0 24    cpx #$24
57f2 d0 1e    bne $5812
57f4 ad 4c 02 lda $024c
57f7 d0 03    bne $57fc
57f9 4c 55 da jmp $da55
57fc 20 d1 c1 jsr $c1d1
57ff ad 85 fe lda $fe85
5802 85 80    sta $80
5804 a9 00    lda #$00
5806 85 81    sta $81
5808 20 46 dc jsr $dc46
580b a5 7f    lda $7f
580d 09 02    ora #$02
580f 4c eb d7 jmp $d7eb
5812 e0 23    cpx #$23
5814 d0 12    bne $5828
5816 4c 84 cb jmp $cb84
5819 a9 02    lda #$02
581b 8d 96 02 sta $0296
581e a9 00    lda #$00
5820 85 7f    sta $7f
5822 8d 8e 02 sta $028e
5825 20 42 d0 jsr $d042
5828 20 e5 c1 jsr $c1e5
582b d0 04    bne $5831
582d a2 00    ldx #$00
582f f0 0c    beq $583d
5831 8a       txa 
5832 f0 05    beq $5839
5834 a9 30    lda #$30
5836 4c c8 c1 jmp $c1c8
5839 88       dey 
583a f0 01    beq $583d
583c 88       dey 
583d 8c 7a 02 sty $027a
5840 a9 8d    lda #$8d
5842 20 68 c2 jsr $c268
5845 e8       inx 
5846 8e 78 02 stx $0278
5849 20 12 c3 jsr $c312
584c 20 ca c3 jsr $c3ca
584f 20 9d c4 jsr $c49d
5852 a2 00    ldx #$00
5854 8e 58 02 stx $0258
5857 8e 97 02 stx $0297
585a 8e 4a 02 stx $024a
585d e8       inx 
585e ec 77 02 cpx $0277
5861 b0 10    bcs $5873
5863 20 09 da jsr $da09
5866 e8       inx 
5867 ec 77 02 cpx $0277
586a b0 07    bcs $5873
586c c0 04    cpy #$04
586e f0 3e    beq $58ae
5870 20 09 da jsr $da09
5873 ae 4c 02 ldx $024c
5876 86 83    stx $83
5878 e0 02    cpx #$02
587a b0 12    bcs $588e
587c 8e 97 02 stx $0297
587f a9 40    lda #$40
5881 8d f9 02 sta $02f9
5884 ad 4a 02 lda $024a
5887 d0 1b    bne $58a4
5889 a9 02    lda #$02
588b 8d 4a 02 sta $024a
588e ad 4a 02 lda $024a
5891 d0 11    bne $58a4
5893 a5 e7    lda $e7
5895 29 07    and #$07
5897 8d 4a 02 sta $024a
589a ad 80 02 lda $0280
589d d0 05    bne $58a4
589f a9 01    lda #$01
58a1 8d 4a 02 sta $024a
58a4 ad 97 02 lda $0297
58a7 c9 01    cmp #$01
58a9 f0 18    beq $58c3
58ab 4c 40 d9 jmp $d940
58ae bc 7a 02 ldy $027a,x
58b1 b9 00 02 lda $0200,y
58b4 8d 58 02 sta $0258
58b7 ad 80 02 lda $0280
58ba d0 b7    bne $5873
58bc a9 01    lda #$01
58be 8d 97 02 sta $0297
58c1 d0 b0    bne $5873
58c3 a5 e7    lda $e7
58c5 29 80    and #$80
58c7 aa       tax 
58c8 d0 23    bne $58ed
58ca a9 20    lda #$20
58cc 24 e7    bit $e7
58ce f0 06    beq $58d6
58d0 20 b6 c8 jsr $c8b6
58d3 4c e3 d9 jmp $d9e3
58d6 ad 80 02 lda $0280
58d9 d0 03    bne $58de
58db 4c e3 d9 jmp $d9e3
58de ad 00 02 lda $0200
58e1 c9 40    cmp #$40
58e3 f0 0d    beq $58f2
58e5 8a       txa 
58e6 d0 05    bne $58ed
58e8 a9 63    lda #$63
58ea 4c c8 c1 jmp $c1c8
58ed a9 33    lda #$33
58ef 4c c8 c1 jmp $c1c8
58f2 a5 e7    lda $e7
58f4 29 07    and #$07
58f6 cd 4a 02 cmp $024a
58f9 d0 67    bne $5962
58fb c9 04    cmp #$04
58fd f0 63    beq $5962
58ff a0 00    ldy #$00
5901 b1 94    lda ($94),y
5903 29 40    and #$40
5905 d0 e1    bne $58e8
5907 20 b9 c8 jsr $c8b9
590a a0 01    ldy #$01
590c b1 94    lda ($94),y
590e 85 80    sta $80
5910 c8       iny 
5911 b1 94    lda ($94),y
5913 85 81    sta $81
5915 20 7d c8 jsr $c87d
5918 a9 00    lda #$00
591a 8d 80 02 sta $0280
591d 4c 52 d8 jmp $d852
5920 8a       txa 
5921 29 03    and #$03
5923 85 4b    sta $4b
5925 ad 00 1c lda $1c00
5928 29 fc    and #$fc
592a 05 4b    ora $4b
592c 8d 00 1c sta $1c00
592f a2 04    ldx #$04
5931 86 4b    stx $4b
5933 e8       inx 
5934 d0 fd    bne $5933
5936 c6 4b    dec $4b
5938 d0 f9    bne $5933
593a 60       rts 
593b ef       ???
593c d9 ad 80 cmp $80ad,y
593f 02       ???
5940 d0 05    bne $5947
5942 a9 62    lda #$62
5944 4c c8 c1 jmp $c1c8
5947 ad 97 02 lda $0297
594a c9 03    cmp #$03
594c f0 0b    beq $5959
594e a9 20    lda #$20
5950 24 e7    bit $e7
5952 f0 05    beq $5959
5954 a9 60    lda #$60
5956 4c c8 c1 jmp $c1c8
5959 a5 e7    lda $e7
595b 29 07    and #$07
595d cd 4a 02 cmp $024a
5960 f0 05    beq $5967
5962 a9 64    lda #$64
5964 4c c8 c1 jmp $c1c8
5967 a0 00    ldy #$00
5969 8c 79 02 sty $0279
596c ae 97 02 ldx $0297
596f e0 02    cpx #$02
5971 d0 1a    bne $598d
5973 c9 04    cmp #$04
5975 f0 eb    beq $5962
5977 b1 94    lda ($94),y
5979 29 4f    and #$4f
597b 91 94    sta ($94),y
597d a5 83    lda $83
597f 48       pha 
5980 a9 11    lda #$11
5982 85 83    sta $83
5984 20 3b de jsr $de3b
5987 20 64 d4 jsr $d464
598a 68       pla 
598b 85 83    sta $83
598d 20 a0 d9 jsr $d9a0
5990 ad 97 02 lda $0297
5993 c9 02    cmp #$02
5995 d0 55    bne $59ec
5997 20 2a da jsr $da2a
599a 4c 94 c1 jmp $c194
599d a0 13    ldy #$13
599f b1 94    lda ($94),y
59a1 8d 59 02 sta $0259
59a4 c8       iny 
59a5 b1 94    lda ($94),y
59a7 8d 5a 02 sta $025a
59aa c8       iny 
59ab b1 94    lda ($94),y
59ad ae 58 02 ldx $0258
59b0 8d 58 02 sta $0258
59b3 8a       txa 
59b4 f0 0a    beq $59c0
59b6 cd 58 02 cmp $0258
59b9 f0 05    beq $59c0
59bb a9 50    lda #$50
59bd 20 c8 c1 jsr $c1c8
59c0 ae 79 02 ldx $0279
59c3 bd 80 02 lda $0280,x
59c6 85 80    sta $80
59c8 bd 85 02 lda $0285,x
59cb 85 81    sta $81
59cd 20 46 dc jsr $dc46
59d0 a4 82    ldy $82
59d2 ae 79 02 ldx $0279
59d5 b5 d8    lda $d8,x
59d7 99 60 02 sta $0260,y
59da b5 dd    lda $dd,x
59dc 99 66 02 sta $0266,y
59df 60       rts 
59e0 a5 e2    lda $e2
59e2 29 01    and #$01
59e4 85 7f    sta $7f
59e6 20 da dc jsr $dcda
59e9 20 e4 d6 jsr $d6e4
59ec a5 83    lda $83
59ee c9 02    cmp #$02
59f0 b0 11    bcs $5a03
59f2 20 3e de jsr $de3e
59f5 a5 80    lda $80
59f7 85 7e    sta $7e
59f9 a5 7f    lda $7f
59fb 8d 6e 02 sta $026e
59fe a5 81    lda $81
5a00 8d 6f 02 sta $026f
5a03 4c 99 c1 jmp $c199
5a06 bc 7a 02 ldy $027a,x
5a09 b9 00 02 lda $0200,y
5a0c a0 04    ldy #$04
5a0e 88       dey 
5a0f 30 08    bmi $5a19
5a11 d9 b2 fe cmp $feb2,y
5a14 d0 f8    bne $5a0e
5a16 8c 97 02 sty $0297
5a19 a0 05    ldy #$05
5a1b 88       dey 
5a1c 30 08    bmi $5a26
5a1e d9 b6 fe cmp $feb6,y
5a21 d0 f8    bne $5a1b
5a23 8c 4a 02 sty $024a
5a26 60       rts 
5a27 20 39 ca jsr $ca39
5a2a a9 80    lda #$80
5a2c 20 a6 dd jsr $dda6
5a2f f0 f6    beq $5a27
5a31 20 95 de jsr $de95
5a34 a6 81    ldx $81
5a36 e8       inx 
5a37 8a       txa 
5a38 d0 05    bne $5a3f
5a3a 20 a3 d1 jsr $d1a3
5a3d a9 02    lda #$02
5a3f 20 c8 d4 jsr $d4c8
5a42 a6 82    ldx $82
5a44 a9 01    lda #$01
5a46 95 f2    sta $f2,x
5a48 a9 80    lda #$80
5a4a 05 82    ora $82
5a4c a6 83    ldx $83
5a4e 9d 2b 02 sta $022b,x
5a51 60       rts 
5a52 a9 0c    lda #$0c
5a54 8d 2a 02 sta $022a
5a57 a9 00    lda #$00
5a59 ae 74 02 ldx $0274
5a5c ca       dex 
5a5d f0 0b    beq $5a6a
5a5f ca       dex 
5a60 d0 21    bne $5a83
5a62 ad 01 02 lda $0201
5a65 20 bd c3 jsr $c3bd
5a68 30 19    bmi $5a83
5a6a 85 e2    sta $e2
5a6c ee 77 02 inc $0277
5a6f ee 78 02 inc $0278
5a72 ee 7a 02 inc $027a
5a75 a9 80    lda #$80
5a77 85 e7    sta $e7
5a79 a9 2a    lda #$2a
5a7b 8d 00 02 sta $0200
5a7e 8d 01 02 sta $0201
5a81 d0 18    bne $5a9b
5a83 20 e5 c1 jsr $c1e5
5a86 d0 05    bne $5a8d
5a88 20 dc c2 jsr $c2dc
5a8b a0 03    ldy #$03
5a8d 88       dey 
5a8e 88       dey 
5a8f 8c 7a 02 sty $027a
5a92 20 00 c2 jsr $c200
5a95 20 98 c3 jsr $c398
5a98 20 20 c3 jsr $c320
5a9b 20 ca c3 jsr $c3ca
5a9e 20 b7 c7 jsr $c7b7
5aa1 20 9d c4 jsr $c49d
5aa4 20 9e ec jsr $ec9e
5aa7 20 37 d1 jsr $d137
5aaa a6 82    ldx $82
5aac 9d 3e 02 sta $023e,x
5aaf a5 7f    lda $7f
5ab1 8d 8e 02 sta $028e
5ab4 09 04    ora #$04
5ab6 95 ec    sta $ec,x
5ab8 a9 00    lda #$00
5aba 85 a3    sta $a3
5abc 60       rts 
5abd a9 00    lda #$00
5abf 8d f9 02 sta $02f9
5ac2 a5 83    lda $83
5ac4 d0 0b    bne $5ad1
5ac6 a9 00    lda #$00
5ac8 8d 54 02 sta $0254
5acb 20 27 d2 jsr $d227
5ace 4c da d4 jmp $d4da
5ad1 c9 0f    cmp #$0f
5ad3 f0 14    beq $5ae9
5ad5 20 02 db jsr $db02
5ad8 a5 83    lda $83
5ada c9 02    cmp #$02
5adc 90 f0    bcc $5ace
5ade ad 6c 02 lda $026c
5ae1 d0 03    bne $5ae6
5ae3 4c 94 c1 jmp $c194
5ae6 4c ad c1 jmp $c1ad
5ae9 a9 0e    lda #$0e
5aeb 85 83    sta $83
5aed 20 02 db jsr $db02
5af0 c6 83    dec $83
5af2 10 f9    bpl $5aed
5af4 ad 6c 02 lda $026c
5af7 d0 03    bne $5afc
5af9 4c 94 c1 jmp $c194
5afc 4c ad c1 jmp $c1ad
5aff a6 83    ldx $83
5b01 bd 2b 02 lda $022b,x
5b04 c9 ff    cmp #$ff
5b06 d0 01    bne $5b09
5b08 60       rts 
5b09 29 0f    and #$0f
5b0b 85 82    sta $82
5b0d 20 25 d1 jsr $d125
5b10 c9 07    cmp #$07
5b12 f0 0f    beq $5b23
5b14 c9 04    cmp #$04
5b16 f0 11    beq $5b29
5b18 20 07 d1 jsr $d107
5b1b b0 09    bcs $5b26
5b1d 20 62 db jsr $db62
5b20 20 a5 db jsr $dba5
5b23 20 f4 ee jsr $eef4
5b26 4c 27 d2 jmp $d227
5b29 20 f1 dd jsr $ddf1
5b2c 20 1e cf jsr $cf1e
5b2f 20 cb e1 jsr $e1cb
5b32 a6 d5    ldx $d5
5b34 86 73    stx $73
5b36 e6 73    inc $73
5b38 a9 00    lda #$00
5b3a 85 70    sta $70
5b3c 85 71    sta $71
5b3e a5 d6    lda $d6
5b40 38       sec 
5b41 e9 0e    sbc #$0e
5b43 85 72    sta $72
5b45 20 51 df jsr $df51
5b48 a6 82    ldx $82
5b4a a5 70    lda $70
5b4c 95 b5    sta $b5,x
5b4e a5 71    lda $71
5b50 95 bb    sta $bb,x
5b52 a9 40    lda #$40
5b54 20 a6 dd jsr $dda6
5b57 f0 03    beq $5b5c
5b59 20 a5 db jsr $dba5
5b5c 4c 27 d2 jmp $d227
5b5f a6 82    ldx $82
5b61 b5 b5    lda $b5,x
5b63 15 bb    ora $bb,x
5b65 d0 0c    bne $5b73
5b67 20 e8 d4 jsr $d4e8
5b6a c9 02    cmp #$02
5b6c d0 05    bne $5b73
5b6e a9 0d    lda #$0d
5b70 20 f1 cf jsr $cff1
5b73 20 e8 d4 jsr $d4e8
5b76 c9 02    cmp #$02
5b78 d0 0f    bne $5b89
5b7a 20 1e cf jsr $cf1e
5b7d a6 82    ldx $82
5b7f b5 b5    lda $b5,x
5b81 d0 02    bne $5b85
5b83 d6 bb    dec $bb,x
5b85 d6 b5    dec $b5,x
5b87 a9 00    lda #$00
5b89 38       sec 
5b8a e9 01    sbc #$01
5b8c 48       pha 
5b8d a9 00    lda #$00
5b8f 20 c8 d4 jsr $d4c8
5b92 20 f1 cf jsr $cff1
5b95 68       pla 
5b96 20 f1 cf jsr $cff1
5b99 20 c7 d0 jsr $d0c7
5b9c 20 99 d5 jsr $d599
5b9f 4c 1e cf jmp $cf1e
5ba2 a6 82    ldx $82
5ba4 8e 70 02 stx $0270
5ba7 a5 83    lda $83
5ba9 48       pha 
5baa bd 60 02 lda $0260,x
5bad 85 81    sta $81
5baf bd 66 02 lda $0266,x
5bb2 8d 94 02 sta $0294
5bb5 b5 ec    lda $ec,x
5bb7 29 01    and #$01
5bb9 85 7f    sta $7f
5bbb ad 85 fe lda $fe85
5bbe 85 80    sta $80
5bc0 20 93 df jsr $df93
5bc3 48       pha 
5bc4 85 f9    sta $f9
5bc6 20 60 d4 jsr $d460
5bc9 a0 00    ldy #$00
5bcb bd e0 fe lda $fee0,x
5bce 85 87    sta $87
5bd0 ad 94 02 lda $0294
5bd3 85 86    sta $86
5bd5 b1 86    lda ($86),y
5bd7 29 20    and #$20
5bd9 f0 43    beq $5c1e
5bdb 20 25 d1 jsr $d125
5bde c9 04    cmp #$04
5be0 f0 44    beq $5c26
5be2 b1 86    lda ($86),y
5be4 29 8f    and #$8f
5be6 91 86    sta ($86),y
5be8 c8       iny 
5be9 b1 86    lda ($86),y
5beb 85 80    sta $80
5bed 84 71    sty $71
5bef a0 1b    ldy #$1b
5bf1 b1 86    lda ($86),y
5bf3 48       pha 
5bf4 88       dey 
5bf5 b1 86    lda ($86),y
5bf7 d0 0a    bne $5c03
5bf9 85 80    sta $80
5bfb 68       pla 
5bfc 85 81    sta $81
5bfe a9 67    lda #$67
5c00 20 45 e6 jsr $e645
5c03 48       pha 
5c04 a9 00    lda #$00
5c06 91 86    sta ($86),y
5c08 c8       iny 
5c09 91 86    sta ($86),y
5c0b 68       pla 
5c0c a4 71    ldy $71
5c0e 91 86    sta ($86),y
5c10 c8       iny 
5c11 b1 86    lda ($86),y
5c13 85 81    sta $81
5c15 68       pla 
5c16 91 86    sta ($86),y
5c18 20 7d c8 jsr $c87d
5c1b 4c 29 dc jmp $dc29
5c1e b1 86    lda ($86),y
5c20 29 0f    and #$0f
5c22 09 80    ora #$80
5c24 91 86    sta ($86),y
5c26 ae 70 02 ldx $0270
5c29 a0 1c    ldy #$1c
5c2b b5 b5    lda $b5,x
5c2d 91 86    sta ($86),y
5c2f c8       iny 
5c30 b5 bb    lda $bb,x
5c32 91 86    sta ($86),y
5c34 68       pla 
5c35 aa       tax 
5c36 a9 90    lda #$90
5c38 05 7f    ora $7f
5c3a 20 90 d5 jsr $d590
5c3d 68       pla 
5c3e 85 83    sta $83
5c40 4c 07 d1 jmp $d107
5c43 a9 01    lda #$01
5c45 20 e2 d1 jsr $d1e2
5c48 20 b6 dc jsr $dcb6
5c4b ad 4a 02 lda $024a
5c4e 48       pha 
5c4f 0a       asl a
5c50 05 7f    ora $7f
5c52 95 ec    sta $ec,x
5c54 20 9b d0 jsr $d09b
5c57 a6 82    ldx $82
5c59 a5 80    lda $80
5c5b d0 05    bne $5c62
5c5d a5 81    lda $81
5c5f 9d 44 02 sta $0244,x
5c62 68       pla 
5c63 c9 04    cmp #$04
5c65 d0 3f    bne $5ca6
5c67 a4 83    ldy $83
5c69 b9 2b 02 lda $022b,y
5c6c 09 40    ora #$40
5c6e 99 2b 02 sta $022b,y
5c71 ad 58 02 lda $0258
5c74 95 c7    sta $c7,x
5c76 20 8e d2 jsr $d28e
5c79 10 03    bpl $5c7e
5c7b 4c 0f d2 jmp $d20f
5c7e a6 82    ldx $82
5c80 95 cd    sta $cd,x
5c82 ac 59 02 ldy $0259
5c85 84 80    sty $80
5c87 ac 5a 02 ldy $025a
5c8a 84 81    sty $81
5c8c 20 d3 d6 jsr $d6d3
5c8f 20 73 de jsr $de73
5c92 20 99 d5 jsr $d599
5c95 a6 82    ldx $82
5c97 a9 02    lda #$02
5c99 95 c1    sta $c1,x
5c9b a9 00    lda #$00
5c9d 20 c8 d4 jsr $d4c8
5ca0 20 53 e1 jsr $e153
5ca3 4c 3e de jmp $de3e
5ca6 20 56 d1 jsr $d156
5ca9 a6 82    ldx $82
5cab 9d 3e 02 sta $023e,x
5cae a9 88    lda #$88
5cb0 95 f2    sta $f2,x
5cb2 60       rts 
5cb3 a6 82    ldx $82
5cb5 b5 a7    lda $a7,x
5cb7 0a       asl a
5cb8 a8       tay 
5cb9 a9 02    lda #$02
5cbb 99 99 00 sta $0099,y
5cbe b5 ae    lda $ae,x
5cc0 09 80    ora #$80
5cc2 95 ae    sta $ae,x
5cc4 0a       asl a
5cc5 a8       tay 
5cc6 a9 02    lda #$02
5cc8 99 99 00 sta $0099,y
5ccb a9 00    lda #$00
5ccd 95 b5    sta $b5,x
5ccf 95 bb    sta $bb,x
5cd1 a9 00    lda #$00
5cd3 9d 44 02 sta $0244,x
5cd6 60       rts 
5cd7 20 a9 f1 jsr $f1a9
5cda a9 01    lda #$01
5cdc 20 df d1 jsr $d1df
5cdf 20 d0 d6 jsr $d6d0
5ce2 20 b6 dc jsr $dcb6
5ce5 a6 82    ldx $82
5ce7 ad 4a 02 lda $024a
5cea 48       pha 
5ceb 0a       asl a
5cec 05 7f    ora $7f
5cee 95 ec    sta $ec,x
5cf0 68       pla 
5cf1 c9 04    cmp #$04
5cf3 f0 05    beq $5cfa
5cf5 a9 01    lda #$01
5cf7 95 f2    sta $f2,x
5cf9 60       rts 
5cfa a4 83    ldy $83
5cfc b9 2b 02 lda $022b,y
5cff 29 3f    and #$3f
5d01 09 40    ora #$40
5d03 99 2b 02 sta $022b,y
5d06 ad 58 02 lda $0258
5d09 95 c7    sta $c7,x
5d0b 20 8e d2 jsr $d28e
5d0e 10 03    bpl $5d13
5d10 4c 0f d2 jmp $d20f
5d13 a6 82    ldx $82
5d15 95 cd    sta $cd,x
5d17 20 c1 de jsr $dec1
5d1a 20 1e f1 jsr $f11e
5d1d a5 80    lda $80
5d1f 8d 59 02 sta $0259
5d22 a5 81    lda $81
5d24 8d 5a 02 sta $025a
5d27 a6 82    ldx $82
5d29 b5 cd    lda $cd,x
5d2b 20 d3 d6 jsr $d6d3
5d2e a9 00    lda #$00
5d30 20 e9 de jsr $dee9
5d33 a9 00    lda #$00
5d35 20 8d dd jsr $dd8d
5d38 a9 11    lda #$11
5d3a 20 8d dd jsr $dd8d
5d3d a9 00    lda #$00
5d3f 20 8d dd jsr $dd8d
5d42 ad 58 02 lda $0258
5d45 20 8d dd jsr $dd8d
5d48 a5 80    lda $80
5d4a 20 8d dd jsr $dd8d
5d4d a5 81    lda $81
5d4f 20 8d dd jsr $dd8d
5d52 a9 10    lda #$10
5d54 20 e9 de jsr $dee9
5d57 20 3e de jsr $de3e
5d5a a5 80    lda $80
5d5c 20 8d dd jsr $dd8d
5d5f a5 81    lda $81
5d61 20 8d dd jsr $dd8d
5d64 20 6c de jsr $de6c
5d67 20 99 d5 jsr $d599
5d6a a9 02    lda #$02
5d6c 20 c8 d4 jsr $d4c8
5d6f a6 82    ldx $82
5d71 38       sec 
5d72 a9 00    lda #$00
5d74 f5 c7    sbc $c7,x
5d76 95 c1    sta $c1,x
5d78 20 e2 e2 jsr $e2e2
5d7b 20 19 de jsr $de19
5d7e 20 5e de jsr $de5e
5d81 20 99 d5 jsr $d599
5d84 20 f4 ee jsr $eef4
5d87 4c 98 dc jmp $dc98
5d8a 48       pha 
5d8b a6 82    ldx $82
5d8d b5 cd    lda $cd,x
5d8f 4c fd cf jmp $cffd
5d92 90 06    bcc $5d9a
5d94 a6 82    ldx $82
5d96 15 ec    ora $ec,x
5d98 d0 06    bne $5da0
5d9a a6 82    ldx $82
5d9c 49 ff    eor #$ff
5d9e 35 ec    and $ec,x
5da0 95 ec    sta $ec,x
5da2 60       rts 
5da3 a6 82    ldx $82
5da5 35 ec    and $ec,x
5da7 60       rts 
5da8 20 93 df jsr $df93
5dab aa       tax 
5dac bd 5b 02 lda $025b,x
5daf 29 f0    and #$f0
5db1 c9 90    cmp #$90
5db3 60       rts 
5db4 a2 00    ldx #$00
5db6 86 71    stx $71
5db8 bd 2b 02 lda $022b,x
5dbb c9 ff    cmp #$ff
5dbd d0 08    bne $5dc7
5dbf a6 71    ldx $71
5dc1 e8       inx 
5dc2 e0 10    cpx #$10
5dc4 90 f0    bcc $5db6
5dc6 60       rts 
5dc7 86 71    stx $71
5dc9 29 3f    and #$3f
5dcb a8       tay 
5dcc b9 ec 00 lda $00ec,y
5dcf 29 01    and #$01
5dd1 85 70    sta $70
5dd3 ae 53 02 ldx $0253
5dd6 b5 e2    lda $e2,x
5dd8 29 01    and #$01
5dda c5 70    cmp $70
5ddc d0 e1    bne $5dbf
5dde b9 60 02 lda $0260,y
5de1 d5 d8    cmp $d8,x
5de3 d0 da    bne $5dbf
5de5 b9 66 02 lda $0266,y
5de8 d5 dd    cmp $dd,x
5dea d0 d3    bne $5dbf
5dec 18       clc 
5ded 60       rts 
5dee 20 9e df jsr $df9e
5df1 50 06    bvc $5df9
5df3 20 5e de jsr $de5e
5df6 20 99 d5 jsr $d599
5df9 60       rts 
5dfa 20 2b de jsr $de2b
5dfd a5 80    lda $80
5dff 91 94    sta ($94),y
5e01 c8       iny 
5e02 a5 81    lda $81
5e04 91 94    sta ($94),y
5e06 4c 05 e1 jmp $e105
5e09 20 2b de jsr $de2b
5e0c b1 94    lda ($94),y
5e0e 85 80    sta $80
5e10 c8       iny 
5e11 b1 94    lda ($94),y
5e13 85 81    sta $81
5e15 60       rts 
5e16 20 2b de jsr $de2b
5e19 a9 00    lda #$00
5e1b 91 94    sta ($94),y
5e1d c8       iny 
5e1e a6 82    ldx $82
5e20 b5 c1    lda $c1,x
5e22 aa       tax 
5e23 ca       dex 
5e24 8a       txa 
5e25 91 94    sta ($94),y
5e27 60       rts 
5e28 20 93 df jsr $df93
5e2b 0a       asl a
5e2c aa       tax 
5e2d b5 9a    lda $9a,x
5e2f 85 95    sta $95
5e31 a9 00    lda #$00
5e33 85 94    sta $94
5e35 a0 00    ldy #$00
5e37 60       rts 
5e38 20 eb d0 jsr $d0eb
5e3b 20 93 df jsr $df93
5e3e 85 f9    sta $f9
5e40 0a       asl a
5e41 a8       tay 
5e42 b9 06 00 lda $0006,y
5e45 85 80    sta $80
5e47 b9 07 00 lda $0007,y
5e4a 85 81    sta $81
5e4c 60       rts 
5e4d a9 90    lda #$90
5e4f 8d 4d 02 sta $024d
5e52 d0 28    bne $5e7c
5e54 a9 80    lda #$80
5e56 8d 4d 02 sta $024d
5e59 d0 21    bne $5e7c
5e5b a9 90    lda #$90
5e5d 8d 4d 02 sta $024d
5e60 d0 26    bne $5e88
5e62 a9 80    lda #$80
5e64 8d 4d 02 sta $024d
5e67 d0 1f    bne $5e88
5e69 a9 90    lda #$90
5e6b 8d 4d 02 sta $024d
5e6e d0 02    bne $5e72
5e70 a9 80    lda #$80
5e72 8d 4d 02 sta $024d
5e75 a6 82    ldx $82
5e77 b5 cd    lda $cd,x
5e79 aa       tax 
5e7a 10 13    bpl $5e8f
5e7c 20 d0 d6 jsr $d6d0
5e7f 20 93 df jsr $df93
5e82 aa       tax 
5e83 a5 7f    lda $7f
5e85 9d 5b 02 sta $025b,x
5e88 20 15 e1 jsr $e115
5e8b 20 93 df jsr $df93
5e8e aa       tax 
5e8f 4c 06 d5 jmp $d506
5e92 a9 00    lda #$00
5e94 20 c8 d4 jsr $d4c8
5e97 20 37 d1 jsr $d137
5e9a 85 80    sta $80
5e9c 20 37 d1 jsr $d137
5e9f 85 81    sta $81
5ea1 60       rts 
5ea2 48       pha 
5ea3 a9 00    lda #$00
5ea5 85 6f    sta $6f
5ea7 85 71    sta $71
5ea9 b9 e0 fe lda $fee0,y
5eac 85 70    sta $70
5eae bd e0 fe lda $fee0,x
5eb1 85 72    sta $72
5eb3 68       pla 
5eb4 a8       tay 
5eb5 88       dey 
5eb6 b1 6f    lda ($6f),y
5eb8 91 71    sta ($71),y
5eba 88       dey 
5ebb 10 f9    bpl $5eb6
5ebd 60       rts 
5ebe a8       tay 
5ebf b9 e0 fe lda $fee0,y
5ec2 85 70    sta $70
5ec4 a9 00    lda #$00
5ec6 85 6f    sta $6f
5ec8 a8       tay 
5ec9 91 6f    sta ($6f),y
5ecb c8       iny 
5ecc d0 fb    bne $5ec9
5ece 60       rts 
5ecf a9 00    lda #$00
5ed1 20 dc de jsr $dedc
5ed4 a0 02    ldy #$02
5ed6 b1 94    lda ($94),y
5ed8 60       rts 
5ed9 85 94    sta $94
5edb a6 82    ldx $82
5edd b5 cd    lda $cd,x
5edf aa       tax 
5ee0 bd e0 fe lda $fee0,x
5ee3 85 95    sta $95
5ee5 60       rts 
5ee6 48       pha 
5ee7 20 dc de jsr $dedc
5eea 48       pha 
5eeb 8a       txa 
5eec 0a       asl a
5eed aa       tax 
5eee 68       pla 
5eef 95 9a    sta $9a,x
5ef1 68       pla 
5ef2 95 99    sta $99,x
5ef4 60       rts 
5ef5 20 66 df jsr $df66
5ef8 30 0e    bmi $5f08
5efa 50 13    bvc $5f0f
5efc a6 82    ldx $82
5efe b5 cd    lda $cd,x
5f00 20 1b df jsr $df1b
5f03 20 66 df jsr $df66
5f06 10 07    bpl $5f0f
5f08 20 cb e1 jsr $e1cb
5f0b 2c ce fe bit $fece
5f0e 60       rts 
5f0f a5 d6    lda $d6
5f11 20 e9 de jsr $dee9
5f14 2c cd fe bit $fecd
5f17 60       rts 
5f18 85 f9    sta $f9
5f1a a9 80    lda #$80
5f1c d0 04    bne $5f22
5f1e 85 f9    sta $f9
5f20 a9 90    lda #$90
5f22 48       pha 
5f23 b5 ec    lda $ec,x
5f25 29 01    and #$01
5f27 85 7f    sta $7f
5f29 68       pla 
5f2a 05 7f    ora $7f
5f2c 8d 4d 02 sta $024d
5f2f b1 94    lda ($94),y
5f31 85 80    sta $80
5f33 c8       iny 
5f34 b1 94    lda ($94),y
5f36 85 81    sta $81
5f38 a5 f9    lda $f9
5f3a 20 d3 d6 jsr $d6d3
5f3d a6 f9    ldx $f9
5f3f 4c 93 d5 jmp $d593
5f42 a6 82    ldx $82
5f44 b5 cd    lda $cd,x
5f46 4c eb d4 jmp $d4eb
5f49 a9 78    lda #$78
5f4b 20 5c df jsr $df5c
5f4e ca       dex 
5f4f 10 f8    bpl $5f49
5f51 a5 72    lda $72
5f53 4a       lsr a
5f54 20 5c df jsr $df5c
5f57 a5 73    lda $73
5f59 18       clc 
5f5a 65 70    adc $70
5f5c 85 70    sta $70
5f5e 90 02    bcc $5f62
5f60 e6 71    inc $71
5f62 60       rts 
5f63 20 d2 de jsr $ded2
5f66 c5 d5    cmp $d5
5f68 d0 0e    bne $5f78
5f6a a4 d6    ldy $d6
5f6c b1 94    lda ($94),y
5f6e f0 04    beq $5f74
5f70 2c cd fe bit $fecd
5f73 60       rts 
5f74 2c cf fe bit $fecf
5f77 60       rts 
5f78 a5 d5    lda $d5
5f7a c9 06    cmp #$06
5f7c b0 0a    bcs $5f88
5f7e 0a       asl a
5f7f a8       tay 
5f80 a9 04    lda #$04
5f82 85 94    sta $94
5f84 b1 94    lda ($94),y
5f86 d0 04    bne $5f8c
5f88 2c d0 fe bit $fed0
5f8b 60       rts 
5f8c 2c ce fe bit $fece
5f8f 60       rts 
5f90 a6 82    ldx $82
5f92 b5 a7    lda $a7,x
5f94 10 02    bpl $5f98
5f96 b5 ae    lda $ae,x
5f98 29 bf    and #$bf
5f9a 60       rts 
5f9b a6 82    ldx $82
5f9d 8e 57 02 stx $0257
5fa0 b5 a7    lda $a7,x
5fa2 10 09    bpl $5fad
5fa4 8a       txa 
5fa5 18       clc 
5fa6 69 07    adc #$07
5fa8 8d 57 02 sta $0257
5fab b5 ae    lda $ae,x
5fad 85 70    sta $70
5faf 29 1f    and #$1f
5fb1 24 70    bit $70
5fb3 60       rts 
5fb4 a6 82    ldx $82
5fb6 b5 a7    lda $a7,x
5fb8 30 02    bmi $5fbc
5fba b5 ae    lda $ae,x
5fbc c9 ff    cmp #$ff
5fbe 60       rts 
5fbf a6 82    ldx $82
5fc1 09 80    ora #$80
5fc3 b4 a7    ldy $a7,x
5fc5 10 03    bpl $5fca
5fc7 95 a7    sta $a7,x
5fc9 60       rts 
5fca 95 ae    sta $ae,x
5fcc 60       rts 
5fcd a9 20    lda #$20
5fcf 20 9d dd jsr $dd9d
5fd2 a9 80    lda #$80
5fd4 20 a6 dd jsr $dda6
5fd7 d0 41    bne $601a
5fd9 a6 82    ldx $82
5fdb f6 b5    inc $b5,x
5fdd d0 02    bne $5fe1
5fdf f6 bb    inc $bb,x
5fe1 a6 82    ldx $82
5fe3 b5 c1    lda $c1,x
5fe5 f0 2e    beq $6015
5fe7 20 e8 d4 jsr $d4e8
5fea a6 82    ldx $82
5fec d5 c1    cmp $c1,x
5fee 90 03    bcc $5ff3
5ff0 20 3c e0 jsr $e03c
5ff3 a6 82    ldx $82
5ff5 b5 c1    lda $c1,x
5ff7 20 c8 d4 jsr $d4c8
5ffa a1 99    lda ($99,x)
5ffc 85 85    sta $85
5ffe a9 20    lda #$20
6000 20 9d dd jsr $dd9d
6003 20 04 e3 jsr $e304
6006 48       pha 
6007 90 28    bcc $6031
6009 a9 00    lda #$00
600b 20 f6 d4 jsr $d4f6
600e d0 21    bne $6031
6010 68       pla 
6011 c9 02    cmp #$02
6013 f0 12    beq $6027
6015 a9 80    lda #$80
6017 20 97 dd jsr $dd97
601a 20 2f d1 jsr $d12f
601d b5 99    lda $99,x
601f 99 44 02 sta $0244,y
6022 a9 0d    lda #$0d
6024 85 85    sta $85
6026 60       rts 
6027 20 35 e0 jsr $e035
602a a6 82    ldx $82
602c a9 00    lda #$00
602e 95 c1    sta $c1,x
6030 60       rts 
6031 68       pla 
6032 a6 82    ldx $82
6034 95 c1    sta $c1,x
6036 4c 6e e1 jmp $e16e
6039 20 d3 d1 jsr $d1d3
603c 20 95 de jsr $de95
603f 20 9e df jsr $df9e
6042 50 16    bvc $605a
6044 20 5e de jsr $de5e
6047 20 1e cf jsr $cf1e
604a a9 02    lda #$02
604c 20 c8 d4 jsr $d4c8
604f 20 ab dd jsr $ddab
6052 d0 24    bne $6078
6054 20 57 de jsr $de57
6057 4c 99 d5 jmp $d599
605a 20 1e cf jsr $cf1e
605d 20 ab dd jsr $ddab
6060 d0 06    bne $6068
6062 20 57 de jsr $de57
6065 20 99 d5 jsr $d599
6068 20 95 de jsr $de95
606b a5 80    lda $80
606d f0 09    beq $6078
606f 20 1e cf jsr $cf1e
6072 20 57 de jsr $de57
6075 20 1e cf jsr $cf1e
6078 60       rts 
6079 20 05 e1 jsr $e105
607c 20 93 df jsr $df93
607f 0a       asl a
6080 aa       tax 
6081 a5 85    lda $85
6083 81 99    sta ($99,x)
6085 b4 99    ldy $99,x
6087 c8       iny 
6088 d0 09    bne $6093
608a a4 82    ldy $82
608c b9 c1 00 lda $00c1,y
608f f0 0a    beq $609b
6091 a0 02    ldy #$02
6093 98       tya 
6094 a4 82    ldy $82
6096 d9 c1 00 cmp $00c1,y
6099 d0 05    bne $60a0
609b a9 20    lda #$20
609d 4c 97 dd jmp $dd97
60a0 f6 99    inc $99,x
60a2 d0 03    bne $60a7
60a4 20 3c e0 jsr $e03c
60a7 60       rts 
60a8 a9 a0    lda #$a0
60aa 20 a6 dd jsr $dda6
60ad d0 27    bne $60d6
60af a5 85    lda $85
60b1 20 7c e0 jsr $e07c
60b4 a5 f8    lda $f8
60b6 f0 0d    beq $60c5
60b8 60       rts 
60b9 a9 20    lda #$20
60bb 20 a6 dd jsr $dda6
60be f0 05    beq $60c5
60c0 a9 51    lda #$51
60c2 8d 6c 02 sta $026c
60c5 20 f3 e0 jsr $e0f3
60c8 20 53 e1 jsr $e153
60cb ad 6c 02 lda $026c
60ce f0 03    beq $60d3
60d0 4c c8 c1 jmp $c1c8
60d3 4c bc e6 jmp $e6bc
60d6 29 80    and #$80
60d8 d0 05    bne $60df
60da a5 f8    lda $f8
60dc f0 db    beq $60b9
60de 60       rts 
60df a5 85    lda $85
60e1 48       pha 
60e2 20 1c e3 jsr $e31c
60e5 68       pla 
60e6 85 85    sta $85
60e8 a9 80    lda #$80
60ea 20 9d dd jsr $dd9d
60ed 4c b2 e0 jmp $e0b2
60f0 a9 20    lda #$20
60f2 20 a6 dd jsr $dda6
60f5 d0 0a    bne $6101
60f7 a9 00    lda #$00
60f9 85 85    sta $85
60fb 20 7c e0 jsr $e07c
60fe 4c f3 e0 jmp $e0f3
6101 60       rts 
6102 a9 40    lda #$40
6104 20 97 dd jsr $dd97
6107 20 9e df jsr $df9e
610a 09 40    ora #$40
610c ae 57 02 ldx $0257
610f 95 a7    sta $a7,x
6111 60       rts 
6112 20 9e df jsr $df9e
6115 29 bf    and #$bf
6117 ae 57 02 ldx $0257
611a 95 a7    sta $a7,x
611c 60       rts 
611d a9 80    lda #$80
611f 20 a6 dd jsr $dda6
6122 d0 37    bne $615b
6124 20 2f d1 jsr $d12f
6127 b5 99    lda $99,x
6129 d9 44 02 cmp $0244,y
612c f0 22    beq $6150
612e f6 99    inc $99,x
6130 d0 06    bne $6138
6132 20 3c e0 jsr $e03c
6135 20 2f d1 jsr $d12f
6138 a1 99    lda ($99,x)
613a 99 3e 02 sta $023e,y
613d a9 89    lda #$89
613f 99 f2 00 sta $00f2,y
6142 b5 99    lda $99,x
6144 d9 44 02 cmp $0244,y
6147 f0 01    beq $614a
6149 60       rts 
614a a9 81    lda #$81
614c 99 f2 00 sta $00f2,y
614f 60       rts 
6150 20 d0 df jsr $dfd0
6153 20 2f d1 jsr $d12f
6156 a5 85    lda $85
6158 4c 3d e1 jmp $e13d
615b a6 82    ldx $82
615d a9 0d    lda #$0d
615f 9d 3e 02 sta $023e,x
6162 a9 81    lda #$81
6164 95 f2    sta $f2,x
6166 a9 50    lda #$50
6168 20 c8 c1 jsr $c1c8
616b a6 82    ldx $82
616d b5 c1    lda $c1,x
616f 85 87    sta $87
6171 c6 87    dec $87
6173 c9 02    cmp #$02
6175 d0 04    bne $617b
6177 a9 ff    lda #$ff
6179 85 87    sta $87
617b b5 c7    lda $c7,x
617d 85 88    sta $88
617f 20 e8 d4 jsr $d4e8
6182 a6 82    ldx $82
6184 c5 87    cmp $87
6186 90 19    bcc $61a1
6188 f0 17    beq $61a1
618a 20 1e cf jsr $cf1e
618d 20 b2 e1 jsr $e1b2
6190 90 08    bcc $619a
6192 a6 82    ldx $82
6194 9d 44 02 sta $0244,x
6197 4c 1e cf jmp $cf1e
619a 20 1e cf jsr $cf1e
619d a9 ff    lda #$ff
619f 85 87    sta $87
61a1 20 b2 e1 jsr $e1b2
61a4 b0 03    bcs $61a9
61a6 20 e8 d4 jsr $d4e8
61a9 a6 82    ldx $82
61ab 9d 44 02 sta $0244,x
61ae 60       rts 
61af 20 2b de jsr $de2b
61b2 a4 87    ldy $87
61b4 b1 94    lda ($94),y
61b6 d0 0d    bne $61c5
61b8 88       dey 
61b9 c0 02    cpy #$02
61bb 90 04    bcc $61c1
61bd c6 88    dec $88
61bf d0 f3    bne $61b4
61c1 c6 88    dec $88
61c3 18       clc 
61c4 60       rts 
61c5 98       tya 
61c6 38       sec 
61c7 60       rts 
61c8 20 d2 de jsr $ded2
61cb 85 d5    sta $d5
61cd a9 04    lda #$04
61cf 85 94    sta $94
61d1 a0 0a    ldy #$0a
61d3 d0 04    bne $61d9
61d5 88       dey 
61d6 88       dey 
61d7 30 26    bmi $61ff
61d9 b1 94    lda ($94),y
61db f0 f8    beq $61d5
61dd 98       tya 
61de 4a       lsr a
61df c5 d5    cmp $d5
61e1 f0 09    beq $61ec
61e3 85 d5    sta $d5
61e5 a6 82    ldx $82
61e7 b5 cd    lda $cd,x
61e9 20 1b df jsr $df1b
61ec a0 00    ldy #$00
61ee 84 94    sty $94
61f0 b1 94    lda ($94),y
61f2 d0 0b    bne $61ff
61f4 c8       iny 
61f5 b1 94    lda ($94),y
61f7 a8       tay 
61f8 88       dey 
61f9 84 d6    sty $d6
61fb 98       tya 
61fc 4c e9 de jmp $dee9
61ff a9 67    lda #$67
6201 20 45 e6 jsr $e645
6204 20 b3 c2 jsr $c2b3
6207 ad 01 02 lda $0201
620a 85 83    sta $83
620c 20 eb d0 jsr $d0eb
620f 90 05    bcc $6216
6211 a9 70    lda #$70
6213 20 c8 c1 jsr $c1c8
6216 a9 a0    lda #$a0
6218 20 9d dd jsr $dd9d
621b 20 25 d1 jsr $d125
621e f0 05    beq $6225
6220 a9 64    lda #$64
6222 20 c8 c1 jsr $c1c8
6225 b5 ec    lda $ec,x
6227 29 01    and #$01
6229 85 7f    sta $7f
622b ad 02 02 lda $0202
622e 95 b5    sta $b5,x
6230 ad 03 02 lda $0203
6233 95 bb    sta $bb,x
6235 a6 82    ldx $82
6237 a9 89    lda #$89
6239 95 f2    sta $f2,x
623b ad 04 02 lda $0204
623e f0 10    beq $6250
6240 38       sec 
6241 e9 01    sbc #$01
6243 f0 0b    beq $6250
6245 d5 c7    cmp $c7,x
6247 90 07    bcc $6250
6249 a9 51    lda #$51
624b 8d 6c 02 sta $026c
624e a9 00    lda #$00
6250 85 d4    sta $d4
6252 20 0e ce jsr $ce0e
6255 20 f8 de jsr $def8
6258 50 08    bvc $6262
625a a9 80    lda #$80
625c 20 97 dd jsr $dd97
625f 4c 5e e1 jmp $e15e
6262 20 75 e2 jsr $e275
6265 a9 80    lda #$80
6267 20 a6 dd jsr $dda6
626a f0 03    beq $626f
626c 4c 5e e1 jmp $e15e
626f 4c 94 c1 jmp $c194
6272 20 9c e2 jsr $e29c
6275 a5 d7    lda $d7
6277 20 c8 d4 jsr $d4c8
627a a6 82    ldx $82
627c b5 c7    lda $c7,x
627e 38       sec 
627f e5 d4    sbc $d4
6281 b0 03    bcs $6286
6283 4c 02 e2 jmp $e202
6286 18       clc 
6287 65 d7    adc $d7
6289 90 03    bcc $628e
628b 69 01    adc #$01
628d 38       sec 
628e 20 09 e0 jsr $e009
6291 4c 38 e1 jmp $e138
6294 a9 51    lda #$51
6296 20 c8 c1 jsr $c1c8
6299 a5 94    lda $94
629b 85 89    sta $89
629d a5 95    lda $95
629f 85 8a    sta $8a
62a1 20 d0 e2 jsr $e2d0
62a4 d0 01    bne $62a7
62a6 60       rts 
62a7 20 f1 dd jsr $ddf1
62aa 20 0c de jsr $de0c
62ad a5 80    lda $80
62af f0 0e    beq $62bf
62b1 20 d3 e2 jsr $e2d3
62b4 d0 06    bne $62bc
62b6 20 1e cf jsr $cf1e
62b9 4c da d2 jmp $d2da
62bc 20 da d2 jsr $d2da
62bf a0 00    ldy #$00
62c1 b1 89    lda ($89),y
62c3 85 80    sta $80
62c5 c8       iny 
62c6 b1 89    lda ($89),y
62c8 85 81    sta $81
62ca 4c af d0 jmp $d0af
62cd 20 3e de jsr $de3e
62d0 a0 00    ldy #$00
62d2 b1 89    lda ($89),y
62d4 c5 80    cmp $80
62d6 f0 01    beq $62d9
62d8 60       rts 
62d9 c8       iny 
62da b1 89    lda ($89),y
62dc c5 81    cmp $81
62de 60       rts 
62df 20 2b de jsr $de2b
62e2 a0 02    ldy #$02
62e4 a9 00    lda #$00
62e6 91 94    sta ($94),y
62e8 c8       iny 
62e9 d0 fb    bne $62e6
62eb 20 04 e3 jsr $e304
62ee 95 c1    sta $c1,x
62f0 a8       tay 
62f1 a9 ff    lda #$ff
62f3 91 94    sta ($94),y
62f5 20 04 e3 jsr $e304
62f8 90 f4    bcc $62ee
62fa d0 04    bne $6300
62fc a9 00    lda #$00
62fe 95 c1    sta $c1,x
6300 60       rts 
6301 a6 82    ldx $82
6303 b5 c1    lda $c1,x
6305 38       sec 
6306 f0 0d    beq $6315
6308 18       clc 
6309 75 c7    adc $c7,x
630b 90 0b    bcc $6318
630d d0 06    bne $6315
630f a9 02    lda #$02
6311 2c cc fe bit $fecc
6314 60       rts 
6315 69 01    adc #$01
6317 38       sec 
6318 60       rts 
6319 20 d3 d1 jsr $d1d3
631c 20 cb e1 jsr $e1cb
631f 20 9c e2 jsr $e29c
6322 20 7b cf jsr $cf7b
6325 a5 d6    lda $d6
6327 85 87    sta $87
6329 a5 d5    lda $d5
632b 85 86    sta $86
632d a9 00    lda #$00
632f 85 88    sta $88
6331 a9 00    lda #$00
6333 85 d4    sta $d4
6335 20 0e ce jsr $ce0e
6338 20 4d ef jsr $ef4d
633b a4 82    ldy $82
633d b6 c7    ldx $c7,y
633f ca       dex 
6340 8a       txa 
6341 18       clc 
6342 65 d7    adc $d7
6344 90 0c    bcc $6352
6346 e6 d6    inc $d6
6348 e6 d6    inc $d6
634a d0 06    bne $6352
634c e6 d5    inc $d5
634e a9 10    lda #$10
6350 85 d6    sta $d6
6352 a5 87    lda $87
6354 18       clc 
6355 69 02    adc #$02
6357 20 e9 de jsr $dee9
635a a5 d5    lda $d5
635c c9 06    cmp #$06
635e 90 05    bcc $6365
6360 a9 52    lda #$52
6362 20 c8 c1 jsr $c1c8
6365 a5 d6    lda $d6
6367 38       sec 
6368 e5 87    sbc $87
636a b0 03    bcs $636f
636c e9 0f    sbc #$0f
636e 18       clc 
636f 85 72    sta $72
6371 a5 d5    lda $d5
6373 e5 86    sbc $86
6375 85 73    sta $73
6377 a2 00    ldx #$00
6379 86 70    stx $70
637b 86 71    stx $71
637d aa       tax 
637e 20 51 df jsr $df51
6381 a5 71    lda $71
6383 d0 07    bne $638c
6385 a6 70    ldx $70
6387 ca       dex 
6388 d0 02    bne $638c
638a e6 88    inc $88
638c cd 73 02 cmp $0273
638f 90 09    bcc $639a
6391 d0 cd    bne $6360
6393 ad 72 02 lda $0272
6396 c5 70    cmp $70
6398 90 c6    bcc $6360
639a a9 01    lda #$01
639c 20 f6 d4 jsr $d4f6
639f 18       clc 
63a0 69 01    adc #$01
63a2 a6 82    ldx $82
63a4 95 c1    sta $c1,x
63a6 20 1e f1 jsr $f11e
63a9 20 fd dd jsr $ddfd
63ac a5 88    lda $88
63ae d0 15    bne $63c5
63b0 20 5e de jsr $de5e
63b3 20 1e cf jsr $cf1e
63b6 20 d0 d6 jsr $d6d0
63b9 20 1e f1 jsr $f11e
63bc 20 fd dd jsr $ddfd
63bf 20 e2 e2 jsr $e2e2
63c2 4c d4 e3 jmp $e3d4
63c5 20 1e cf jsr $cf1e
63c8 20 d0 d6 jsr $d6d0
63cb 20 e2 e2 jsr $e2e2
63ce 20 19 de jsr $de19
63d1 20 5e de jsr $de5e
63d4 20 0c de jsr $de0c
63d7 a5 80    lda $80
63d9 48       pha 
63da a5 81    lda $81
63dc 48       pha 
63dd 20 3e de jsr $de3e
63e0 a5 81    lda $81
63e2 48       pha 
63e3 a5 80    lda $80
63e5 48       pha 
63e6 20 45 df jsr $df45
63e9 aa       tax 
63ea d0 0a    bne $63f6
63ec 20 4e e4 jsr $e44e
63ef a9 10    lda #$10
63f1 20 e9 de jsr $dee9
63f4 e6 86    inc $86
63f6 68       pla 
63f7 20 8d dd jsr $dd8d
63fa 68       pla 
63fb 20 8d dd jsr $dd8d
63fe 68       pla 
63ff 85 81    sta $81
6401 68       pla 
6402 85 80    sta $80
6404 f0 0f    beq $6415
6406 a5 86    lda $86
6408 c5 d5    cmp $d5
640a d0 a7    bne $63b3
640c 20 45 df jsr $df45
640f c5 d6    cmp $d6
6411 90 a0    bcc $63b3
6413 f0 b0    beq $63c5
6415 20 45 df jsr $df45
6418 48       pha 
6419 a9 00    lda #$00
641b 20 dc de jsr $dedc
641e a9 00    lda #$00
6420 a8       tay 
6421 91 94    sta ($94),y
6423 c8       iny 
6424 68       pla 
6425 38       sec 
6426 e9 01    sbc #$01
6428 91 94    sta ($94),y
642a 20 6c de jsr $de6c
642d 20 99 d5 jsr $d599
6430 20 f4 ee jsr $eef4
6433 20 0e ce jsr $ce0e
6436 20 1e cf jsr $cf1e
6439 20 f8 de jsr $def8
643c 70 03    bvs $6441
643e 4c 75 e2 jmp $e275
6441 a9 80    lda #$80
6443 20 97 dd jsr $dd97
6446 a9 50    lda #$50
6448 20 c8 c1 jsr $c1c8
644b 20 1e f1 jsr $f11e
644e 20 1e cf jsr $cf1e
6451 20 f1 dd jsr $ddf1
6454 20 93 df jsr $df93
6457 48       pha 
6458 20 c1 de jsr $dec1
645b a6 82    ldx $82
645d b5 cd    lda $cd,x
645f a8       tay 
6460 68       pla 
6461 aa       tax 
6462 a9 10    lda #$10
6464 20 a5 de jsr $dea5
6467 a9 00    lda #$00
6469 20 dc de jsr $dedc
646c a0 02    ldy #$02
646e b1 94    lda ($94),y
6470 48       pha 
6471 a9 00    lda #$00
6473 20 c8 d4 jsr $d4c8
6476 68       pla 
6477 18       clc 
6478 69 01    adc #$01
647a 91 94    sta ($94),y
647c 0a       asl a
647d 69 04    adc #$04
647f 85 89    sta $89
6481 a8       tay 
6482 38       sec 
6483 e9 02    sbc #$02
6485 85 8a    sta $8a
6487 a5 80    lda $80
6489 85 87    sta $87
648b 91 94    sta ($94),y
648d c8       iny 
648e a5 81    lda $81
6490 85 88    sta $88
6492 91 94    sta ($94),y
6494 a0 00    ldy #$00
6496 98       tya 
6497 91 94    sta ($94),y
6499 c8       iny 
649a a9 11    lda #$11
649c 91 94    sta ($94),y
649e a9 10    lda #$10
64a0 20 c8 d4 jsr $d4c8
64a3 20 50 de jsr $de50
64a6 20 99 d5 jsr $d599
64a9 a6 82    ldx $82
64ab b5 cd    lda $cd,x
64ad 48       pha 
64ae 20 9e df jsr $df9e
64b1 a6 82    ldx $82
64b3 95 cd    sta $cd,x
64b5 68       pla 
64b6 ae 57 02 ldx $0257
64b9 95 a7    sta $a7,x
64bb a9 00    lda #$00
64bd 20 c8 d4 jsr $d4c8
64c0 a0 00    ldy #$00
64c2 a5 80    lda $80
64c4 91 94    sta ($94),y
64c6 c8       iny 
64c7 a5 81    lda $81
64c9 91 94    sta ($94),y
64cb 4c de e4 jmp $e4de
64ce 20 93 df jsr $df93
64d1 a6 82    ldx $82
64d3 20 1b df jsr $df1b
64d6 a9 00    lda #$00
64d8 20 c8 d4 jsr $d4c8
64db c6 8a    dec $8a
64dd c6 8a    dec $8a
64df a4 89    ldy $89
64e1 a5 87    lda $87
64e3 91 94    sta ($94),y
64e5 c8       iny 
64e6 a5 88    lda $88
64e8 91 94    sta ($94),y
64ea 20 5e de jsr $de5e
64ed 20 99 d5 jsr $d599
64f0 a4 8a    ldy $8a
64f2 c0 03    cpy #$03
64f4 b0 d8    bcs $64ce
64f6 4c 1e cf jmp $cf1e
64f9 00       brk 
64fa a0 4f    ldy #$4f
64fc cb       ???
64fd 20 21 22 jsr $2221
6500 23       ???
6501 24 27    bit $27
6503 d2       ???
6504 45 41    eor $41
6506 44       ???
6507 89       ???
6508 52       ???
6509 83       ???
650a 20 54 4f jsr $4f54
650d 4f       ???
650e 20 4c 41 jsr $414c
6511 52       ???
6512 47       ???
6513 c5 50    cmp $50
6515 8b       ???
6516 06 20    asl $20
6518 50 52    bvc $656c
651a 45 53    eor $53
651c 45 4e    eor $4e
651e d4       ???
651f 51 cf    eor ($cf),y
6521 56 45    lsr $45,x
6523 52       ???
6524 46 4c    lsr $4c
6526 4f       ???
6527 57       ???
6528 20 49 4e jsr $4e49
652b 8b       ???
652c 25 28    and $28
652e 8a       txa 
652f 89       ???
6530 26 8a    rol $8a
6532 20 50 52 jsr $5250
6535 4f       ???
6536 54       ???
6537 45 43    eor $43
6539 54       ???
653a 20 4f ce jsr $ce4f
653d 29 88    and #$88
653f 20 49 44 jsr $4449
6542 85 30    sta $30
6544 31 32    and ($32),y
6546 33       ???
6547 34       ???
6548 d3       ???
6549 59 4e 54 eor $544e,y
654c 41 58    eor ($58,x)
654e 89       ???
654f 60       rts 
6550 8a       txa 
6551 03       ???
6552 84 63    sty $63
6554 83       ???
6555 20 45 58 jsr $5845
6558 49 53    eor #$53
655a 54       ???
655b d3       ???
655c 64       ???
655d 83       ???
655e 20 54 59 jsr $5954
6561 50 45    bvc $65a8
6563 85 65    sta $65
6565 ce 4f 20 dec $204f
6568 42       ???
6569 4c 4f 43 jmp $434f
656c cb       ???
656d 66 67    ror $67
656f c9 4c    cmp #$4c
6571 4c 45 47 jmp $4745
6574 41 4c    eor ($4c,x)
6576 20 54 52 jsr $5254
6579 41 43    eor ($43,x)
657b 4b       ???
657c 20 4f 52 jsr $524f
657f 20 53 45 jsr $4553
6582 43       ???
6583 54       ???
6584 4f       ???
6585 d2       ???
6586 61 83    adc ($83,x)
6588 06 84    asl $84
658a 39 62 83 and $8362,y
658d 06 87    asl $87
658f 01 83    ora ($83,x)
6591 53       ???
6592 20 53 43 jsr $4353
6595 52       ???
6596 41 54    eor ($54,x)
6598 43       ???
6599 48       pha 
659a 45 c4    eor $c4
659c 70 ce    bvs $656c
659e 4f       ???
659f 20 43 48 jsr $4843
65a2 41 4e    eor ($4e,x)
65a4 4e 45 cc lsr $cc45
65a7 71 c4    adc ($c4),y
65a9 49 52    eor #$52
65ab 89       ???
65ac 72       ???
65ad 88       dey 
65ae 20 46 55 jsr $5546
65b1 4c cc 73 jmp $73cc
65b4 c4 4f    cpy $4f
65b6 4c 50 48 jmp $4850
65b9 49 4e    eor #$4e
65bb 44       ???
65bc 4f       ???
65bd 53       ???
65be 2e 32 20 rol $2032
65c1 31 35    and ($35),y
65c3 34       ???
65c4 b1 74    lda ($74),y
65c6 c4 52    cpy $52
65c8 49 56    eor #$56
65ca 45 06    eor $06
65cc 20 52 45 jsr $4552
65cf 41 44    eor ($44,x)
65d1 d9 09 c5 cmp $c509,y
65d4 52       ???
65d5 52       ???
65d6 4f       ???
65d7 d2       ???
65d8 0a       asl a
65d9 d7       ???
65da 52       ???
65db 49 54    eor #$54
65dd c5 03    cmp $03
65df c6 49    dec $49
65e1 4c c5 04 jmp $04c5
65e4 cf       ???
65e5 50 45    bvc $662c
65e7 ce 05 cd dec $cd05
65ea 49 53    eor #$53
65ec 4d 41 54 eor $5441
65ef 43       ???
65f0 c8       iny 
65f1 06 ce    asl $ce
65f3 4f       ???
65f4 d4       ???
65f5 07       ???
65f6 c6 4f    dec $4f
65f8 55 4e    eor $4e,x
65fa c4 08    cpy $08
65fc c4 49    cpy $49
65fe 53       ???
65ff cb       ???
6600 0b       ???
6601 d2       ???
6602 45 43    eor $43
6604 4f       ???
6605 52       ???
6606 c4 48    cpy $48
6608 86 f9    stx $f9
660a 8a       txa 
660b 0a       asl a
660c aa       tax 
660d b5 06    lda $06,x
660f 85 80    sta $80
6611 b5 07    lda $07,x
6613 85 81    sta $81
6615 68       pla 
6616 29 0f    and #$0f
6618 f0 08    beq $6622
661a c9 0f    cmp #$0f
661c d0 06    bne $6624
661e a9 74    lda #$74
6620 d0 08    bne $662a
6622 a9 06    lda #$06
6624 09 20    ora #$20
6626 aa       tax 
6627 ca       dex 
6628 ca       dex 
6629 8a       txa 
662a 48       pha 
662b ad 2a 02 lda $022a
662e c9 00    cmp #$00
6630 d0 0f    bne $6641
6632 a9 ff    lda #$ff
6634 8d 2a 02 sta $022a
6637 68       pla 
6638 20 c7 e6 jsr $e6c7
663b 20 42 d0 jsr $d042
663e 4c 48 e6 jmp $e648
6641 68       pla 
6642 20 c7 e6 jsr $e6c7
6645 20 bd c1 jsr $c1bd
6648 a9 00    lda #$00
664a 8d f9 02 sta $02f9
664d 20 2c c1 jsr $c12c
6650 20 da d4 jsr $d4da
6653 a9 00    lda #$00
6655 85 a3    sta $a3
6657 a2 45    ldx #$45
6659 9a       txs 
665a a5 84    lda $84
665c 29 0f    and #$0f
665e 85 83    sta $83
6660 c9 0f    cmp #$0f
6662 f0 31    beq $6695
6664 78       sei 
6665 a5 79    lda $79
6667 d0 1c    bne $6685
6669 a5 7a    lda $7a
666b d0 10    bne $667d
666d a6 83    ldx $83
666f bd 2b 02 lda $022b,x
6672 c9 ff    cmp #$ff
6674 f0 1f    beq $6695
6676 29 0f    and #$0f
6678 85 82    sta $82
667a 4c 8e e6 jmp $e68e
667d 20 eb d0 jsr $d0eb
6680 ea       nop 
6681 ea       nop 
6682 ea       nop 
6683 d0 06    bne $668b
6685 20 07 d1 jsr $d107
6688 ea       nop 
6689 ea       nop 
668a ea       nop 
668b 20 25 d1 jsr $d125
668e c9 04    cmp #$04
6690 b0 03    bcs $6695
6692 20 27 d2 jsr $d227
6695 4c e7 eb jmp $ebe7
6698 aa       tax 
6699 a9 00    lda #$00
669b f8       sed 
669c e0 00    cpx #$00
669e f0 07    beq $66a7
66a0 18       clc 
66a1 69 01    adc #$01
66a3 ca       dex 
66a4 4c 9f e6 jmp $e69f
66a7 d8       cld 
66a8 aa       tax 
66a9 4a       lsr a
66aa 4a       lsr a
66ab 4a       lsr a
66ac 4a       lsr a
66ad 20 b4 e6 jsr $e6b4
66b0 8a       txa 
66b1 29 0f    and #$0f
66b3 09 30    ora #$30
66b5 91 a5    sta ($a5),y
66b7 c8       iny 
66b8 60       rts 
66b9 20 23 c1 jsr $c123
66bc a9 00    lda #$00
66be a0 00    ldy #$00
66c0 84 80    sty $80
66c2 84 81    sty $81
66c4 a0 00    ldy #$00
66c6 a2 d5    ldx #$d5
66c8 86 a5    stx $a5
66ca a2 02    ldx #$02
66cc 86 a6    stx $a6
66ce 20 ab e6 jsr $e6ab
66d1 a9 2c    lda #$2c
66d3 91 a5    sta ($a5),y
66d5 c8       iny 
66d6 ad d5 02 lda $02d5
66d9 8d 43 02 sta $0243
66dc 8a       txa 
66dd 20 06 e7 jsr $e706
66e0 a9 2c    lda #$2c
66e2 91 a5    sta ($a5),y
66e4 c8       iny 
66e5 a5 80    lda $80
66e7 20 9b e6 jsr $e69b
66ea a9 2c    lda #$2c
66ec 91 a5    sta ($a5),y
66ee c8       iny 
66ef a5 81    lda $81
66f1 20 9b e6 jsr $e69b
66f4 88       dey 
66f5 98       tya 
66f6 18       clc 
66f7 69 d5    adc #$d5
66f9 8d 49 02 sta $0249
66fc e6 a5    inc $a5
66fe a9 88    lda #$88
6700 85 f7    sta $f7
6702 60       rts 
6703 aa       tax 
6704 a5 86    lda $86
6706 48       pha 
6707 a5 87    lda $87
6709 48       pha 
670a a9 fc    lda #$fc
670c 85 86    sta $86
670e a9 e4    lda #$e4
6710 85 87    sta $87
6712 8a       txa 
6713 a2 00    ldx #$00
6715 c1 86    cmp ($86,x)
6717 f0 21    beq $673a
6719 48       pha 
671a 20 75 e7 jsr $e775
671d 90 05    bcc $6724
671f 20 75 e7 jsr $e775
6722 90 fb    bcc $671f
6724 a5 87    lda $87
6726 c9 e6    cmp #$e6
6728 90 08    bcc $6732
672a d0 0a    bne $6736
672c a9 0a    lda #$0a
672e c5 86    cmp $86
6730 90 04    bcc $6736
6732 68       pla 
6733 4c 18 e7 jmp $e718
6736 68       pla 
6737 4c 4d e7 jmp $e74d
673a 20 67 e7 jsr $e767
673d 90 fb    bcc $673a
673f 20 54 e7 jsr $e754
6742 20 67 e7 jsr $e767
6745 90 f8    bcc $673f
6747 20 54 e7 jsr $e754
674a 68       pla 
674b 85 87    sta $87
674d 68       pla 
674e 85 86    sta $86
6750 60       rts 
6751 c9 20    cmp #$20
6753 b0 0b    bcs $6760
6755 aa       tax 
6756 a9 20    lda #$20
6758 91 a5    sta ($a5),y
675a c8       iny 
675b 8a       txa 
675c 20 06 e7 jsr $e706
675f 60       rts 
6760 91 a5    sta ($a5),y
6762 c8       iny 
6763 60       rts 
6764 e6 86    inc $86
6766 d0 02    bne $676a
6768 e6 87    inc $87
676a a1 86    lda ($86,x)
676c 0a       asl a
676d a1 86    lda ($86,x)
676f 29 7f    and #$7f
6771 60       rts 
6772 20 6d e7 jsr $e76d
6775 e6 86    inc $86
6777 d0 02    bne $677b
6779 e6 87    inc $87
677b 60       rts 
677c 60       rts 
677d 60       rts 
677e ad 04 60 lda $6004
6781 c9 12    cmp #$12
6783 f0 0d    beq $6792
6785 a2 24    ldx #$24
6787 a5 54    lda $54
6789 c9 0d    cmp #$0d
678b d0 02    bne $678f
678d a2 29    ldx #$29
678f 8e 23 60 stx $6023
6792 a5 16    lda $16
6794 85 12    sta $12
6796 4c 14 f4 jmp $f414
6799 ea       nop 
679a ea       nop 
679b ea       nop 
679c ea       nop 
679d ea       nop 
679e ea       nop 
679f 60       rts 
67a0 a9 8d    lda #$8d
67a2 20 68 c2 jsr $c268
67a5 20 58 f2 jsr $f258
67a8 ad 78 02 lda $0278
67ab 48       pha 
67ac a9 01    lda #$01
67ae 8d 78 02 sta $0278
67b1 a9 ff    lda #$ff
67b3 85 86    sta $86
67b5 20 4f c4 jsr $c44f
67b8 ad 80 02 lda $0280
67bb d0 05    bne $67c2
67bd a9 39    lda #$39
67bf 20 c8 c1 jsr $c1c8
67c2 68       pla 
67c3 8d 78 02 sta $0278
67c6 ad 80 02 lda $0280
67c9 85 80    sta $80
67cb ad 85 02 lda $0285
67ce 85 81    sta $81
67d0 a9 03    lda #$03
67d2 20 77 d4 jsr $d477
67d5 a9 00    lda #$00
67d7 85 87    sta $87
67d9 20 39 e8 jsr $e839
67dc 85 88    sta $88
67de 20 4b e8 jsr $e84b
67e1 20 39 e8 jsr $e839
67e4 85 89    sta $89
67e6 20 4b e8 jsr $e84b
67e9 a5 86    lda $86
67eb f0 0a    beq $67f7
67ed a5 88    lda $88
67ef 48       pha 
67f0 a5 89    lda $89
67f2 48       pha 
67f3 a9 00    lda #$00
67f5 85 86    sta $86
67f7 20 39 e8 jsr $e839
67fa 85 8a    sta $8a
67fc 20 4b e8 jsr $e84b
67ff 20 39 e8 jsr $e839
6802 a0 00    ldy #$00
6804 91 88    sta ($88),y
6806 20 4b e8 jsr $e84b
6809 a5 88    lda $88
680b 18       clc 
680c 69 01    adc #$01
680e 85 88    sta $88
6810 90 02    bcc $6814
6812 e6 89    inc $89
6814 c6 8a    dec $8a
6816 d0 e7    bne $67ff
6818 20 35 ca jsr $ca35
681b a5 85    lda $85
681d c5 87    cmp $87
681f f0 08    beq $6829
6821 20 3e de jsr $de3e
6824 a9 50    lda #$50
6826 20 45 e6 jsr $e645
6829 a5 f8    lda $f8
682b d0 a8    bne $67d5
682d 68       pla 
682e 85 89    sta $89
6830 68       pla 
6831 85 88    sta $88
6833 6c 88 00 jmp ($0088)
6836 20 35 ca jsr $ca35
6839 a5 f8    lda $f8
683b d0 08    bne $6845
683d 20 3e de jsr $de3e
6840 a9 51    lda #$51
6842 20 45 e6 jsr $e645
6845 a5 85    lda $85
6847 60       rts 
6848 18       clc 
6849 65 87    adc $87
684b 69 00    adc #$00
684d 85 87    sta $87
684f 60       rts 
6850 ad 01 18 lda $1801
6853 a9 01    lda #$01
6855 85 7c    sta $7c
6857 60       rts 
6858 78       sei 
6859 a9 00    lda #$00
685b 85 7c    sta $7c
685d 85 79    sta $79
685f 85 7a    sta $7a
6861 a2 45    ldx #$45
6863 9a       txs 
6864 a9 80    lda #$80
6866 85 f8    sta $f8
6868 85 7d    sta $7d
686a 20 b7 e9 jsr $e9b7
686d 20 a5 e9 jsr $e9a5
6870 ad 00 18 lda $1800
6873 09 10    ora #$10
6875 8d 00 18 sta $1800
6878 ad 00 18 lda $1800
687b 10 57    bpl $68d4
687d 29 04    and #$04
687f d0 f7    bne $6878
6881 20 c9 e9 jsr $e9c9
6884 c9 3f    cmp #$3f
6886 d0 06    bne $688e
6888 a9 00    lda #$00
688a 85 79    sta $79
688c f0 71    beq $68ff
688e c9 5f    cmp #$5f
6890 d0 06    bne $6898
6892 a9 00    lda #$00
6894 85 7a    sta $7a
6896 f0 67    beq $68ff
6898 c5 78    cmp $78
689a d0 0a    bne $68a6
689c a9 01    lda #$01
689e 85 7a    sta $7a
68a0 a9 00    lda #$00
68a2 85 79    sta $79
68a4 f0 29    beq $68cf
68a6 c5 77    cmp $77
68a8 d0 0a    bne $68b4
68aa a9 01    lda #$01
68ac 85 79    sta $79
68ae a9 00    lda #$00
68b0 85 7a    sta $7a
68b2 f0 1b    beq $68cf
68b4 aa       tax 
68b5 29 60    and #$60
68b7 c9 60    cmp #$60
68b9 d0 3f    bne $68fa
68bb 8a       txa 
68bc 85 84    sta $84
68be 29 0f    and #$0f
68c0 85 83    sta $83
68c2 a5 84    lda $84
68c4 29 f0    and #$f0
68c6 c9 e0    cmp #$e0
68c8 d0 35    bne $68ff
68ca 58       cli 
68cb 20 c0 da jsr $dac0
68ce 78       sei 
68cf 2c 00 18 bit $1800
68d2 30 ad    bmi $6881
68d4 a9 00    lda #$00
68d6 85 7d    sta $7d
68d8 ad 00 18 lda $1800
68db 29 ef    and #$ef
68dd 8d 00 18 sta $1800
68e0 a5 79    lda $79
68e2 f0 06    beq $68ea
68e4 20 2e ea jsr $ea2e
68e7 4c e7 eb jmp $ebe7
68ea a5 7a    lda $7a
68ec f0 09    beq $68f7
68ee 20 9c e9 jsr $e99c
68f1 20 ae e9 jsr $e9ae
68f4 20 09 e9 jsr $e909
68f7 4c 4e ea jmp $ea4e
68fa a9 10    lda #$10
68fc 8d 00 18 sta $1800
68ff 4c 0f a0 jmp $a00f
6902 10 d0    bpl $68d4
6904 30 f9    bmi $68ff
6906 78       sei 
6907 20 eb d0 jsr $d0eb
690a b0 06    bcs $6912
690c a6 82    ldx $82
690e 4c 12 a0 jmp $a012
6911 ea       nop 
6912 60       rts 
6913 20 59 ea jsr $ea59
6916 20 c0 e9 jsr $e9c0
6919 29 01    and #$01
691b 08       php 
691c 20 b7 e9 jsr $e9b7
691f 28       plp 
6920 f0 12    beq $6934
6922 20 59 ea jsr $ea59
6925 20 c0 e9 jsr $e9c0
6928 29 01    and #$01
692a d0 f6    bne $6922
692c a6 82    ldx $82
692e b5 f2    lda $f2,x
6930 29 08    and #$08
6932 d0 14    bne $6948
6934 20 59 ea jsr $ea59
6937 20 c0 e9 jsr $e9c0
693a 29 01    and #$01
693c d0 f6    bne $6934
693e 20 59 ea jsr $ea59
6941 20 c0 e9 jsr $e9c0
6944 29 01    and #$01
6946 f0 f6    beq $693e
6948 20 ae e9 jsr $e9ae
694b 20 59 ea jsr $ea59
694e 20 c0 e9 jsr $e9c0
6951 29 01    and #$01
6953 d0 f3    bne $6948
6955 a9 08    lda #$08
6957 85 98    sta $98
6959 20 c0 e9 jsr $e9c0
695c 29 01    and #$01
695e d0 36    bne $6996
6960 a6 82    ldx $82
6962 bd 3e 02 lda $023e,x
6965 6a       ror a
6966 9d 3e 02 sta $023e,x
6969 b0 05    bcs $6970
696b 20 a5 e9 jsr $e9a5
696e d0 03    bne $6973
6970 20 9c e9 jsr $e99c
6973 20 b7 e9 jsr $e9b7
6976 a5 23    lda $23
6978 d0 03    bne $697d
697a 20 f3 fe jsr $fef3
697d 20 fb fe jsr $fefb
6980 c6 98    dec $98
6982 d0 d5    bne $6959
6984 20 59 ea jsr $ea59
6987 20 c0 e9 jsr $e9c0
698a 29 01    and #$01
698c f0 f6    beq $6984
698e 58       cli 
698f 20 aa d3 jsr $d3aa
6992 78       sei 
6993 4c 0f e9 jmp $e90f
6996 4c 4e ea jmp $ea4e
6999 ad 00 18 lda $1800
699c 29 fd    and #$fd
699e 8d 00 18 sta $1800
69a1 60       rts 
69a2 ad 00 18 lda $1800
69a5 09 02    ora #$02
69a7 8d 00 18 sta $1800
69aa 60       rts 
69ab ad 00 18 lda $1800
69ae 09 08    ora #$08
69b0 8d 00 18 sta $1800
69b3 60       rts 
69b4 ad 00 18 lda $1800
69b7 29 f7    and #$f7
69b9 8d 00 18 sta $1800
69bc 60       rts 
69bd ad 00 18 lda $1800
69c0 cd 00 18 cmp $1800
69c3 d0 f8    bne $69bd
69c5 60       rts 
69c6 a9 08    lda #$08
69c8 85 98    sta $98
69ca 20 59 ea jsr $ea59
69cd 20 c0 e9 jsr $e9c0
69d0 29 04    and #$04
69d2 d0 f6    bne $69ca
69d4 20 9c e9 jsr $e99c
69d7 a9 01    lda #$01
69d9 4c 20 ff jmp $ff20
69dc 20 59 ea jsr $ea59
69df ad 0d 18 lda $180d
69e2 29 40    and #$40
69e4 d0 09    bne $69ef
69e6 20 c0 e9 jsr $e9c0
69e9 29 04    and #$04
69eb f0 ef    beq $69dc
69ed d0 19    bne $6a08
69ef 20 a5 e9 jsr $e9a5
69f2 a2 0a    ldx #$0a
69f4 ca       dex 
69f5 d0 fd    bne $69f4
69f7 20 9c e9 jsr $e99c
69fa 20 59 ea jsr $ea59
69fd 20 c0 e9 jsr $e9c0
6a00 29 04    and #$04
6a02 f0 f6    beq $69fa
6a04 a9 00    lda #$00
6a06 85 f8    sta $f8
6a08 ad 00 18 lda $1800
6a0b 49 01    eor #$01
6a0d 4a       lsr a
6a0e 29 02    and #$02
6a10 d0 f6    bne $6a08
6a12 ea       nop 
6a13 ea       nop 
6a14 ea       nop 
6a15 66 85    ror $85
6a17 20 59 ea jsr $ea59
6a1a 20 c0 e9 jsr $e9c0
6a1d 29 04    and #$04
6a1f f0 f6    beq $6a17
6a21 c6 98    dec $98
6a23 d0 e3    bne $6a08
6a25 20 a5 e9 jsr $e9a5
6a28 a5 85    lda $85
6a2a 60       rts 
6a2b 78       sei 
6a2c 20 07 d1 jsr $d107
6a2f b0 05    bcs $6a36
6a31 b5 f2    lda $f2,x
6a33 6a       ror a
6a34 b0 0b    bcs $6a41
6a36 a5 84    lda $84
6a38 29 f0    and #$f0
6a3a c9 f0    cmp #$f0
6a3c f0 03    beq $6a41
6a3e 4c 4e ea jmp $ea4e
6a41 4c 15 a0 jmp $a015
6a44 58       cli 
6a45 20 b7 cf jsr $cfb7
6a48 4c 2e ea jmp $ea2e
6a4b a9 00    lda #$00
6a4d 8d 00 18 sta $1800
6a50 4c e7 eb jmp $ebe7
6a53 4c 5b e8 jmp $e85b
6a56 a5 7d    lda $7d
6a58 f0 06    beq $6a60
6a5a ad 00 18 lda $1800
6a5d 10 09    bpl $6a68
6a5f 60       rts 
6a60 ad 00 18 lda $1800
6a63 10 fa    bpl $6a5f
6a65 4c 5b e8 jmp $e85b
6a68 4c d7 e8 jmp $e8d7
6a6b a2 00    ldx #$00
6a6d 2c a6 6f bit $6fa6
6a70 9a       txs 
6a71 ba       tsx 
6a72 a9 08    lda #$08
6a74 0d 00 1c ora $1c00
6a77 4c ea fe jmp $feea
6a7a 98       tya 
6a7b 18       clc 
6a7c 69 01    adc #$01
6a7e d0 fc    bne $6a7c
6a80 88       dey 
6a81 d0 f8    bne $6a7b
6a83 ad 00 1c lda $1c00
6a86 29 f7    and #$f7
6a88 8d 00 1c sta $1c00
6a8b 98       tya 
6a8c 18       clc 
6a8d 69 01    adc #$01
6a8f d0 fc    bne $6a8d
6a91 88       dey 
6a92 d0 f8    bne $6a8c
6a94 ca       dex 
6a95 10 db    bpl $6a72
6a97 e0 fc    cpx #$fc
6a99 d0 f0    bne $6a8b
6a9b f0 d4    beq $6a71
6a9d 78       sei 
6a9e d8       cld 
6a9f a9 02    lda #$02
6aa1 8d 00 18 sta $1800
6aa4 a9 1a    lda #$1a
6aa6 8d 02 18 sta $1802
6aa9 a2 00    ldx #$00
6aab 8e 03 18 stx $1803
6aae a9 68    lda #$68
6ab0 8d 00 1c sta $1c00
6ab3 09 0f    ora #$0f
6ab5 4c 2f ff jmp $ff2f
6ab8 a9 ff    lda #$ff
6aba 95 00    sta $00,x
6abc d5 00    cmp $00,x
6abe d0 ab    bne $6a6b
6ac0 f6 00    inc $00,x
6ac2 d0 a7    bne $6a6b
6ac4 e8       inx 
6ac5 d0 f3    bne $6aba
6ac7 8a       txa 
6ac8 85 75    sta $75
6aca e6 6f    inc $6f
6acc 86 76    stx $76
6ace a8       tay 
6acf a2 20    ldx #$20
6ad1 18       clc 
6ad2 c6 76    dec $76
6ad4 71 75    adc ($75),y
6ad6 c8       iny 
6ad7 d0 fb    bne $6ad4
6ad9 ca       dex 
6ada d0 f6    bne $6ad2
6adc 69 00    adc #$00
6ade aa       tax 
6adf 45 76    eor $76
6ae1 d0 39    bne $6b1c
6ae3 e0 a0    cpx #$a0
6ae5 d0 e3    bne $6aca
6ae7 a9 01    lda #$01
6ae9 85 76    sta $76
6aeb e6 6f    inc $6f
6aed a2 07    ldx #$07
6aef 98       tya 
6af0 18       clc 
6af1 65 76    adc $76
6af3 91 75    sta ($75),y
6af5 c8       iny 
6af6 d0 f7    bne $6aef
6af8 e6 76    inc $76
6afa ca       dex 
6afb d0 f2    bne $6aef
6afd a2 07    ldx #$07
6aff c6 76    dec $76
6b01 88       dey 
6b02 98       tya 
6b03 18       clc 
6b04 65 76    adc $76
6b06 d1 75    cmp ($75),y
6b08 d0 12    bne $6b1c
6b0a 49 ff    eor #$ff
6b0c 91 75    sta ($75),y
6b0e 51 75    eor ($75),y
6b10 91 75    sta ($75),y
6b12 d0 08    bne $6b1c
6b14 98       tya 
6b15 d0 ea    bne $6b01
6b17 ca       dex 
6b18 d0 e5    bne $6aff
6b1a f0 03    beq $6b1f
6b1c 4c 71 ea jmp $ea71
6b1f a2 45    ldx #$45
6b21 9a       txs 
6b22 ad 00 1c lda $1c00
6b25 29 f7    and #$f7
6b27 4c 99 fb jmp $fb99
6b2a a9 01    lda #$01
6b2c 8d 0c 18 sta $180c
6b2f a9 82    lda #$82
6b31 8d 0d 18 sta $180d
6b34 8d 0e 18 sta $180e
6b37 ad 00 18 lda $1800
6b3a 29 60    and #$60
6b3c 0a       asl a
6b3d 2a       rol a
6b3e 2a       rol a
6b3f 2a       rol a
6b40 09 48    ora #$48
6b42 85 78    sta $78
6b44 49 60    eor #$60
6b46 85 77    sta $77
6b48 a2 00    ldx #$00
6b4a a0 00    ldy #$00
6b4c a9 00    lda #$00
6b4e 95 99    sta $99,x
6b50 e8       inx 
6b51 b9 e0 fe lda $fee0,y
6b54 95 99    sta $99,x
6b56 e8       inx 
6b57 c8       iny 
6b58 c0 05    cpy #$05
6b5a d0 f0    bne $6b4c
6b5c a9 00    lda #$00
6b5e 95 99    sta $99,x
6b60 e8       inx 
6b61 a9 02    lda #$02
6b63 95 99    sta $99,x
6b65 e8       inx 
6b66 a9 d5    lda #$d5
6b68 95 99    sta $99,x
6b6a e8       inx 
6b6b a9 02    lda #$02
6b6d 95 99    sta $99,x
6b6f a9 ff    lda #$ff
6b71 a2 12    ldx #$12
6b73 9d 2b 02 sta $022b,x
6b76 ca       dex 
6b77 10 fa    bpl $6b73
6b79 a2 05    ldx #$05
6b7b 95 a7    sta $a7,x
6b7d 95 ae    sta $ae,x
6b7f 95 cd    sta $cd,x
6b81 ca       dex 
6b82 10 f7    bpl $6b7b
6b84 a9 05    lda #$05
6b86 85 ab    sta $ab
6b88 a9 06    lda #$06
6b8a 85 ac    sta $ac
6b8c a9 ff    lda #$ff
6b8e 85 ad    sta $ad
6b90 85 b4    sta $b4
6b92 a9 05    lda #$05
6b94 8d 3b 02 sta $023b
6b97 a9 84    lda #$84
6b99 8d 3a 02 sta $023a
6b9c a9 0f    lda #$0f
6b9e 8d 56 02 sta $0256
6ba1 a9 01    lda #$01
6ba3 85 f6    sta $f6
6ba5 a9 88    lda #$88
6ba7 85 f7    sta $f7
6ba9 a9 e0    lda #$e0
6bab 8d 4f 02 sta $024f
6bae a9 ff    lda #$ff
6bb0 8d 50 02 sta $0250
6bb3 a9 01    lda #$01
6bb5 85 1c    sta $1c
6bb7 85 1d    sta $1d
6bb9 20 63 cb jsr $cb63
6bbc 20 fa ce jsr $cefa
6bbf 20 59 f2 jsr $f259
6bc2 a9 22    lda #$22
6bc4 85 65    sta $65
6bc6 a9 eb    lda #$eb
6bc8 85 66    sta $66
6bca a9 0a    lda #$0a
6bcc 85 69    sta $69
6bce a9 05    lda #$05
6bd0 85 6a    sta $6a
6bd2 a9 73    lda #$73
6bd4 20 c1 e6 jsr $e6c1
6bd7 a9 00    lda #$00
6bd9 8d 00 18 sta $1800
6bdc a9 1a    lda #$1a
6bde 8d 02 18 sta $1802
6be1 20 81 f3 jsr $f381
6be4 58       cli 
6be5 ad 00 18 lda $1800
6be8 29 e5    and #$e5
6bea 8d 00 18 sta $1800
6bed ad 55 02 lda $0255
6bf0 f0 0a    beq $6bfc
6bf2 a9 00    lda #$00
6bf4 8d 55 02 sta $0255
6bf7 85 67    sta $67
6bf9 20 46 c1 jsr $c146
6bfc 58       cli 
6bfd a5 7c    lda $7c
6bff f0 03    beq $6c04
6c01 4c 5b e8 jmp $e85b
6c04 58       cli 
6c05 a9 0e    lda #$0e
6c07 85 72    sta $72
6c09 a9 00    lda #$00
6c0b 85 6f    sta $6f
6c0d 85 70    sta $70
6c0f a6 72    ldx $72
6c11 bd 2b 02 lda $022b,x
6c14 c9 ff    cmp #$ff
6c16 f0 10    beq $6c28
6c18 29 3f    and #$3f
6c1a 85 82    sta $82
6c1c 20 93 df jsr $df93
6c1f aa       tax 
6c20 bd 5b 02 lda $025b,x
6c23 29 01    and #$01
6c25 aa       tax 
6c26 f6 6f    inc $6f,x
6c28 c6 72    dec $72
6c2a 10 e3    bpl $6c0f
6c2c a0 04    ldy #$04
6c2e b9 00 00 lda $0000,y
6c31 10 05    bpl $6c38
6c33 29 01    and #$01
6c35 aa       tax 
6c36 f6 6f    inc $6f,x
6c38 88       dey 
6c39 10 f3    bpl $6c2e
6c3b 78       sei 
6c3c ad 00 1c lda $1c00
6c3f 29 f7    and #$f7
6c41 48       pha 
6c42 a5 7f    lda $7f
6c44 85 86    sta $86
6c46 a9 00    lda #$00
6c48 85 7f    sta $7f
6c4a a5 6f    lda $6f
6c4c f0 0b    beq $6c59
6c4e a5 1c    lda $1c
6c50 f0 03    beq $6c55
6c52 20 13 d3 jsr $d313
6c55 68       pla 
6c56 09 08    ora #$08
6c58 48       pha 
6c59 20 6d ff jsr $ff6d
6c5c 2c 09 60 bit $6009
6c5f 8e 09 60 stx $6009
6c62 10 06    bpl $6c6a
6c64 a6 3f    ldx $3f
6c66 4c 3f d6 jmp $d63f
6c69 ea       nop 
6c6a a5 86    lda $86
6c6c 85 7f    sta $7f
6c6e 68       pla 
6c6f ae 6c 02 ldx $026c
6c72 f0 21    beq $6c95
6c74 ad 00 1c lda $1c00
6c77 e0 80    cpx #$80
6c79 d0 03    bne $6c7e
6c7b 4c 8b ec jmp $ec8b
6c7e ae 05 18 ldx $1805
6c81 30 12    bmi $6c95
6c83 a2 a0    ldx #$a0
6c85 8e 05 18 stx $1805
6c88 ce 6c 02 dec $026c
6c8b d0 08    bne $6c95
6c8d 4d 6d 02 eor $026d
6c90 a2 10    ldx #$10
6c92 8e 6c 02 stx $026c
6c95 8d 00 1c sta $1c00
6c98 4c ff eb jmp $ebff
6c9b a9 00    lda #$00
6c9d 85 83    sta $83
6c9f a9 01    lda #$01
6ca1 20 e2 d1 jsr $d1e2
6ca4 a9 00    lda #$00
6ca6 20 c8 d4 jsr $d4c8
6ca9 a6 82    ldx $82
6cab a9 00    lda #$00
6cad 9d 44 02 sta $0244,x
6cb0 20 93 df jsr $df93
6cb3 aa       tax 
6cb4 a5 7f    lda $7f
6cb6 9d 5b 02 sta $025b,x
6cb9 a9 01    lda #$01
6cbb 20 f1 cf jsr $cff1
6cbe a9 08    lda #$08
6cc0 20 f1 cf jsr $cff1
6cc3 a9 01    lda #$01
6cc5 20 f1 cf jsr $cff1
6cc8 20 f1 cf jsr $cff1
6ccb ad 72 02 lda $0272
6cce 20 f1 cf jsr $cff1
6cd1 a9 00    lda #$00
6cd3 20 f1 cf jsr $cff1
6cd6 20 59 ed jsr $ed59
6cd9 20 93 df jsr $df93
6cdc 0a       asl a
6cdd aa       tax 
6cde d6 99    dec $99,x
6ce0 d6 99    dec $99,x
6ce2 a9 00    lda #$00
6ce4 20 f1 cf jsr $cff1
6ce7 a9 01    lda #$01
6ce9 20 f1 cf jsr $cff1
6cec 20 f1 cf jsr $cff1
6cef 20 ce c6 jsr $c6ce
6cf2 90 2c    bcc $6d20
6cf4 ad 72 02 lda $0272
6cf7 20 f1 cf jsr $cff1
6cfa ad 73 02 lda $0273
6cfd 20 f1 cf jsr $cff1
6d00 20 59 ed jsr $ed59
6d03 a9 00    lda #$00
6d05 20 f1 cf jsr $cff1
6d08 d0 dd    bne $6ce7
6d0a 20 93 df jsr $df93
6d0d 0a       asl a
6d0e aa       tax 
6d0f a9 00    lda #$00
6d11 95 99    sta $99,x
6d13 a9 88    lda #$88
6d15 a4 82    ldy $82
6d17 8d 54 02 sta $0254
6d1a 99 f2 00 sta $00f2,y
6d1d a5 85    lda $85
6d1f 60       rts 
6d20 ad 72 02 lda $0272
6d23 20 f1 cf jsr $cff1
6d26 ad 73 02 lda $0273
6d29 20 f1 cf jsr $cff1
6d2c 20 59 ed jsr $ed59
6d2f 20 93 df jsr $df93
6d32 0a       asl a
6d33 aa       tax 
6d34 d6 99    dec $99,x
6d36 d6 99    dec $99,x
6d38 a9 00    lda #$00
6d3a 20 f1 cf jsr $cff1
6d3d 20 f1 cf jsr $cff1
6d40 20 f1 cf jsr $cff1
6d43 20 93 df jsr $df93
6d46 0a       asl a
6d47 a8       tay 
6d48 b9 99 00 lda $0099,y
6d4b a6 82    ldx $82
6d4d 9d 44 02 sta $0244,x
6d50 de 44 02 dec $0244,x
6d53 4c 0d ed jmp $ed0d
6d56 a0 00    ldy #$00
6d58 b9 b1 02 lda $02b1,y
6d5b 20 f1 cf jsr $cff1
6d5e c8       iny 
6d5f c0 1b    cpy #$1b
6d61 d0 f5    bne $6d58
6d63 60       rts 
6d64 20 37 d1 jsr $d137
6d67 f0 01    beq $6d6a
6d69 60       rts 
6d6a 85 85    sta $85
6d6c a4 82    ldy $82
6d6e b9 44 02 lda $0244,y
6d71 f0 08    beq $6d7b
6d73 a9 80    lda #$80
6d75 99 f2 00 sta $00f2,y
6d78 a5 85    lda $85
6d7a 60       rts 
6d7b 48       pha 
6d7c 20 ea ec jsr $ecea
6d7f 68       pla 
6d80 60       rts 
6d81 20 d1 c1 jsr $c1d1
6d84 20 42 d0 jsr $d042
6d87 a9 40    lda #$40
6d89 8d f9 02 sta $02f9
6d8c 20 b7 ee jsr $eeb7
6d8f a9 00    lda #$00
6d91 8d 92 02 sta $0292
6d94 20 ac c5 jsr $c5ac
6d97 d0 3d    bne $6dd6
6d99 a9 00    lda #$00
6d9b 85 81    sta $81
6d9d ad 85 fe lda $fe85
6da0 85 80    sta $80
6da2 20 e5 ed jsr $ede5
6da5 a9 00    lda #$00
6da7 8d f9 02 sta $02f9
6daa 20 ff ee jsr $eeff
6dad 4c 94 c1 jmp $c194
6db0 c8       iny 
6db1 b1 94    lda ($94),y
6db3 48       pha 
6db4 c8       iny 
6db5 b1 94    lda ($94),y
6db7 48       pha 
6db8 a0 13    ldy #$13
6dba b1 94    lda ($94),y
6dbc f0 0a    beq $6dc8
6dbe 85 80    sta $80
6dc0 c8       iny 
6dc1 b1 94    lda ($94),y
6dc3 85 81    sta $81
6dc5 20 e5 ed jsr $ede5
6dc8 68       pla 
6dc9 85 81    sta $81
6dcb 68       pla 
6dcc 85 80    sta $80
6dce 20 e5 ed jsr $ede5
6dd1 20 04 c6 jsr $c604
6dd4 f0 c3    beq $6d99
6dd6 a0 00    ldy #$00
6dd8 b1 94    lda ($94),y
6dda 30 d4    bmi $6db0
6ddc 20 b6 c8 jsr $c8b6
6ddf 4c d4 ed jmp $edd4
6de2 4c 3f c0 jmp $c03f
6de5 20 90 ef jsr $ef90
6de8 20 75 d4 jsr $d475
6deb a9 00    lda #$00
6ded 20 c8 d4 jsr $d4c8
6df0 20 37 d1 jsr $d137
6df3 85 80    sta $80
6df5 20 37 d1 jsr $d137
6df8 85 81    sta $81
6dfa a5 80    lda $80
6dfc d0 03    bne $6e01
6dfe 4c 27 d2 jmp $d227
6e01 20 90 ef jsr $ef90
6e04 20 4d d4 jsr $d44d
6e07 4c ee ed jmp $edee
6e0a 20 12 c3 jsr $c312
6e0d a5 e2    lda $e2
6e0f 10 05    bpl $6e16
6e11 a9 33    lda #$33
6e13 4c c8 c1 jmp $c1c8
6e16 29 01    and #$01
6e18 85 7f    sta $7f
6e1a 20 00 c1 jsr $c100
6e1d a5 7f    lda $7f
6e1f 0a       asl a
6e20 aa       tax 
6e21 ac 7b 02 ldy $027b
6e24 cc 74 02 cpy $0274
6e27 f0 1a    beq $6e43
6e29 b9 00 02 lda $0200,y
6e2c 95 12    sta $12,x
6e2e b9 01 02 lda $0201,y
6e31 95 13    sta $13,x
6e33 20 77 fb jsr $fb77
6e36 a9 01    lda #$01
6e38 85 80    sta $80
6e3a 20 c6 c8 jsr $c8c6
6e3d 20 05 f0 jsr $f005
6e40 4c 56 ee jmp $ee56
6e43 20 42 d0 jsr $d042
6e46 a6 7f    ldx $7f
6e48 bd 01 01 lda $0101,x
6e4b cd d5 fe cmp $fed5
6e4e f0 03    beq $6e53
6e50 4c 72 d5 jmp $d572
6e53 20 b7 ee jsr $eeb7
6e56 a5 f9    lda $f9
6e58 a8       tay 
6e59 0a       asl a
6e5a aa       tax 
6e5b ad 88 fe lda $fe88
6e5e 95 99    sta $99,x
6e60 ae 7a 02 ldx $027a
6e63 a9 1b    lda #$1b
6e65 20 6e c6 jsr $c66e
6e68 a0 12    ldy #$12
6e6a a6 7f    ldx $7f
6e6c ad d5 fe lda $fed5
6e6f 9d 01 01 sta $0101,x
6e72 8a       txa 
6e73 0a       asl a
6e74 aa       tax 
6e75 b5 12    lda $12,x
6e77 91 94    sta ($94),y
6e79 c8       iny 
6e7a b5 13    lda $13,x
6e7c 91 94    sta ($94),y
6e7e c8       iny 
6e7f c8       iny 
6e80 a9 32    lda #$32
6e82 91 94    sta ($94),y
6e84 c8       iny 
6e85 ad d5 fe lda $fed5
6e88 91 94    sta ($94),y
6e8a a0 02    ldy #$02
6e8c 91 6d    sta ($6d),y
6e8e ad 85 fe lda $fe85
6e91 85 80    sta $80
6e93 20 93 ef jsr $ef93
6e96 a9 01    lda #$01
6e98 85 81    sta $81
6e9a 20 93 ef jsr $ef93
6e9d 20 ff ee jsr $eeff
6ea0 20 05 f0 jsr $f005
6ea3 a0 01    ldy #$01
6ea5 a9 ff    lda #$ff
6ea7 91 6d    sta ($6d),y
6ea9 20 64 d4 jsr $d464
6eac c6 81    dec $81
6eae 20 60 d4 jsr $d460
6eb1 4c 94 c1 jmp $c194
6eb4 20 d1 f0 jsr $f0d1
6eb7 a0 00    ldy #$00
6eb9 a9 12    lda #$12
6ebb 91 6d    sta ($6d),y
6ebd c8       iny 
6ebe 98       tya 
6ebf 91 6d    sta ($6d),y
6ec1 c8       iny 
6ec2 c8       iny 
6ec3 c8       iny 
6ec4 a9 00    lda #$00
6ec6 85 6f    sta $6f
6ec8 85 70    sta $70
6eca 85 71    sta $71
6ecc 4c ad fb jmp $fbad
6ecf 20 4b f2 jsr $f24b
6ed2 91 6d    sta ($6d),y
6ed4 c8       iny 
6ed5 aa       tax 
6ed6 38       sec 
6ed7 26 6f    rol $6f
6ed9 26 70    rol $70
6edb 26 71    rol $71
6edd ca       dex 
6ede d0 f6    bne $6ed6
6ee0 b5 6f    lda $6f,x
6ee2 91 6d    sta ($6d),y
6ee4 c8       iny 
6ee5 e8       inx 
6ee6 e0 03    cpx #$03
6ee8 90 f6    bcc $6ee0
6eea c0 c0    cpy #$c0
6eec 90 d6    bcc $6ec4
6eee 4c 75 d0 jmp $d075
6ef1 20 93 df jsr $df93
6ef4 aa       tax 
6ef5 bd 5b 02 lda $025b,x
6ef8 29 01    and #$01
6efa 85 7f    sta $7f
6efc a4 7f    ldy $7f
6efe b9 51 02 lda $0251,y
6f01 d0 01    bne $6f04
6f03 60       rts 
6f04 a9 00    lda #$00
6f06 99 51 02 sta $0251,y
6f09 20 3a ef jsr $ef3a
6f0c a5 7f    lda $7f
6f0e 0a       asl a
6f0f 48       pha 
6f10 20 a5 f0 jsr $f0a5
6f13 68       pla 
6f14 18       clc 
6f15 69 01    adc #$01
6f17 20 a5 f0 jsr $f0a5
6f1a a5 80    lda $80
6f1c 48       pha 
6f1d a9 01    lda #$01
6f1f 85 80    sta $80
6f21 0a       asl a
6f22 4c ce ff jmp $ffce
6f25 20 20 f2 jsr $f220
6f28 e6 80    inc $80
6f2a a5 80    lda $80
6f2c cd 23 60 cmp $6023
6f2f 90 f0    bcc $6f21
6f31 68       pla 
6f32 85 80    sta $80
6f34 4c 8a d5 jmp $d58a
6f37 20 0f f1 jsr $f10f
6f3a aa       tax 
6f3b 20 df f0 jsr $f0df
6f3e a6 f9    ldx $f9
6f40 bd e0 fe lda $fee0,x
6f43 85 6e    sta $6e
6f45 a9 00    lda #$00
6f47 85 6d    sta $6d
6f49 60       rts 
6f4a a6 7f    ldx $7f
6f4c bd fa 02 lda $02fa,x
6f4f 8d 72 02 sta $0272
6f52 bd fc 02 lda $02fc,x
6f55 8d 73 02 sta $0273
6f58 60       rts 
6f59 20 f1 ef jsr $eff1
6f5c 20 cf ef jsr $efcf
6f5f 38       sec 
6f60 d0 22    bne $6f84
6f62 b1 6d    lda ($6d),y
6f64 1d e9 ef ora $efe9,x
6f67 91 6d    sta ($6d),y
6f69 20 88 ef jsr $ef88
6f6c a4 6f    ldy $6f
6f6e 18       clc 
6f6f b1 6d    lda ($6d),y
6f71 69 01    adc #$01
6f73 91 6d    sta ($6d),y
6f75 a5 80    lda $80
6f77 cd 85 fe cmp $fe85
6f7a f0 3b    beq $6fb7
6f7c fe fa 02 inc $02fa,x
6f7f d0 03    bne $6f84
6f81 fe fc 02 inc $02fc,x
6f84 60       rts 
6f85 a6 7f    ldx $7f
6f87 a9 01    lda #$01
6f89 9d 51 02 sta $0251,x
6f8c 60       rts 
6f8d 20 f1 ef jsr $eff1
6f90 20 cf ef jsr $efcf
6f93 f0 36    beq $6fcb
6f95 b1 6d    lda ($6d),y
6f97 5d e9 ef eor $efe9,x
6f9a 91 6d    sta ($6d),y
6f9c 20 88 ef jsr $ef88
6f9f a4 6f    ldy $6f
6fa1 b1 6d    lda ($6d),y
6fa3 38       sec 
6fa4 e9 01    sbc #$01
6fa6 91 6d    sta ($6d),y
6fa8 a5 80    lda $80
6faa cd 85 fe cmp $fe85
6fad f0 0b    beq $6fba
6faf bd fa 02 lda $02fa,x
6fb2 d0 03    bne $6fb7
6fb4 de fc 02 dec $02fc,x
6fb7 de fa 02 dec $02fa,x
6fba bd fc 02 lda $02fc,x
6fbd d0 0c    bne $6fcb
6fbf bd fa 02 lda $02fa,x
6fc2 c9 03    cmp #$03
6fc4 b0 05    bcs $6fcb
6fc6 a9 72    lda #$72
6fc8 20 c7 e6 jsr $e6c7
6fcb 60       rts 
6fcc 20 11 f0 jsr $f011
6fcf 98       tya 
6fd0 85 6f    sta $6f
6fd2 a5 81    lda $81
6fd4 4a       lsr a
6fd5 4a       lsr a
6fd6 4a       lsr a
6fd7 38       sec 
6fd8 65 6f    adc $6f
6fda a8       tay 
6fdb a5 81    lda $81
6fdd 29 07    and #$07
6fdf aa       tax 
6fe0 b1 6d    lda ($6d),y
6fe2 3d e9 ef and $efe9,x
6fe5 60       rts 
6fe6 01 02    ora ($02,x)
6fe8 04       ???
6fe9 08       php 
6fea 10 20    bpl $700c
6fec 40       rti 
6fed 80       ???
6fee a9 ff    lda #$ff
6ff0 2c f9 02 bit $02f9
6ff3 f0 0c    beq $7001
6ff5 10 0a    bpl $7001
6ff7 70 08    bvs $7001
6ff9 a9 00    lda #$00
6ffb 8d f9 02 sta $02f9
6ffe 4c 8a d5 jmp $d58a
7001 60       rts 
7002 20 3a ef jsr $ef3a
7005 a0 00    ldy #$00
7007 98       tya 
7008 91 6d    sta ($6d),y
700a c8       iny 
700b d0 fb    bne $7008
700d 60       rts 
700e a5 6f    lda $6f
7010 48       pha 
7011 a5 70    lda $70
7013 48       pha 
7014 a6 7f    ldx $7f
7016 b5 ff    lda $ff,x
7018 f0 05    beq $701f
701a a9 74    lda #$74
701c 20 45 e6 jsr $e645
701f 20 0f f1 jsr $f10f
7022 85 6f    sta $6f
7024 8a       txa 
7025 0a       asl a
7026 85 70    sta $70
7028 aa       tax 
7029 a5 80    lda $80
702b dd 9d 02 cmp $029d,x
702e f0 0b    beq $703b
7030 e8       inx 
7031 86 70    stx $70
7033 dd 9d 02 cmp $029d,x
7036 f0 03    beq $703b
7038 20 5b f0 jsr $f05b
703b a5 70    lda $70
703d a6 7f    ldx $7f
703f 9d 9b 02 sta $029b,x
7042 0a       asl a
7043 0a       asl a
7044 18       clc 
7045 69 a1    adc #$a1
7047 85 6d    sta $6d
7049 a9 02    lda #$02
704b 69 00    adc #$00
704d 85 6e    sta $6e
704f a0 00    ldy #$00
7051 68       pla 
7052 85 70    sta $70
7054 68       pla 
7055 85 6f    sta $6f
7057 60       rts 
7058 a6 6f    ldx $6f
705a 20 df f0 jsr $f0df
705d a5 7f    lda $7f
705f aa       tax 
7060 0a       asl a
7061 1d 9b 02 ora $029b,x
7064 49 01    eor #$01
7066 29 03    and #$03
7068 85 70    sta $70
706a 20 a5 f0 jsr $f0a5
706d a5 f9    lda $f9
706f 0a       asl a
7070 aa       tax 
7071 a5 80    lda $80
7073 0a       asl a
7074 20 8f fb jsr $fb8f
7077 a5 70    lda $70
7079 0a       asl a
707a 0a       asl a
707b a8       tay 
707c a1 99    lda ($99,x)
707e 99 a1 02 sta $02a1,y
7081 a9 00    lda #$00
7083 81 99    sta ($99,x)
7085 f6 99    inc $99,x
7087 c8       iny 
7088 98       tya 
7089 29 03    and #$03
708b d0 ef    bne $707c
708d a6 70    ldx $70
708f a5 80    lda $80
7091 9d 9d 02 sta $029d,x
7094 ad f9 02 lda $02f9
7097 d0 03    bne $709c
7099 4c 8a d5 jmp $d58a
709c 09 80    ora #$80
709e 8d f9 02 sta $02f9
70a1 60       rts 
70a2 a8       tay 
70a3 b9 9d 02 lda $029d,y
70a6 f0 25    beq $70cd
70a8 48       pha 
70a9 a9 00    lda #$00
70ab 99 9d 02 sta $029d,y
70ae a5 f9    lda $f9
70b0 0a       asl a
70b1 aa       tax 
70b2 68       pla 
70b3 0a       asl a
70b4 20 8f fb jsr $fb8f
70b7 98       tya 
70b8 0a       asl a
70b9 0a       asl a
70ba a8       tay 
70bb b9 a1 02 lda $02a1,y
70be 81 99    sta ($99,x)
70c0 a9 00    lda #$00
70c2 99 a1 02 sta $02a1,y
70c5 f6 99    inc $99,x
70c7 c8       iny 
70c8 98       tya 
70c9 29 03    and #$03
70cb d0 ee    bne $70bb
70cd 60       rts 
70ce a5 7f    lda $7f
70d0 0a       asl a
70d1 aa       tax 
70d2 a9 00    lda #$00
70d4 9d 9d 02 sta $029d,x
70d7 e8       inx 
70d8 9d 9d 02 sta $029d,x
70db 60       rts 
70dc b5 a7    lda $a7,x
70de c9 ff    cmp #$ff
70e0 d0 25    bne $7107
70e2 8a       txa 
70e3 48       pha 
70e4 20 8e d2 jsr $d28e
70e7 aa       tax 
70e8 10 05    bpl $70ef
70ea a9 70    lda #$70
70ec 20 c8 c1 jsr $c1c8
70ef 86 f9    stx $f9
70f1 68       pla 
70f2 a8       tay 
70f3 8a       txa 
70f4 09 80    ora #$80
70f6 99 a7 00 sta $00a7,y
70f9 0a       asl a
70fa aa       tax 
70fb ad 85 fe lda $fe85
70fe 95 06    sta $06,x
7100 a9 00    lda #$00
7102 95 07    sta $07,x
7104 4c 86 d5 jmp $d586
7107 29 0f    and #$0f
7109 85 f9    sta $f9
710b 60       rts 
710c a9 06    lda #$06
710e a6 7f    ldx $7f
7110 d0 03    bne $7115
7112 18       clc 
7113 69 07    adc #$07
7115 60       rts 
7116 20 0f f1 jsr $f10f
7119 aa       tax 
711a 60       rts 
711b 20 3e de jsr $de3e
711e a9 03    lda #$03
7120 85 6f    sta $6f
7122 a9 01    lda #$01
7124 0d f9 02 ora $02f9
7127 8d f9 02 sta $02f9
712a a5 6f    lda $6f
712c 48       pha 
712d 20 11 f0 jsr $f011
7130 68       pla 
7131 85 6f    sta $6f
7133 b1 6d    lda ($6d),y
7135 d0 39    bne $7170
7137 a5 80    lda $80
7139 cd 85 fe cmp $fe85
713c f0 19    beq $7157
713e 90 1c    bcc $715c
7140 e6 80    inc $80
7142 a5 80    lda $80
7144 cd 23 60 cmp $6023
7147 d0 e1    bne $712a
7149 ae 85 fe ldx $fe85
714c ca       dex 
714d 86 80    stx $80
714f a9 00    lda #$00
7151 85 81    sta $81
7153 c6 6f    dec $6f
7155 d0 d3    bne $712a
7157 a9 72    lda #$72
7159 20 c8 c1 jsr $c1c8
715c c6 80    dec $80
715e d0 ca    bne $712a
7160 ae 85 fe ldx $fe85
7163 e8       inx 
7164 86 80    stx $80
7166 a9 00    lda #$00
7168 85 81    sta $81
716a c6 6f    dec $6f
716c d0 bc    bne $712a
716e f0 e7    beq $7157
7170 a5 81    lda $81
7172 18       clc 
7173 65 69    adc $69
7175 85 81    sta $81
7177 a5 80    lda $80
7179 20 4b f2 jsr $f24b
717c 8d 4e 02 sta $024e
717f 8d 4d 02 sta $024d
7182 c5 81    cmp $81
7184 b0 0c    bcs $7192
7186 38       sec 
7187 a5 81    lda $81
7189 ed 4e 02 sbc $024e
718c 85 81    sta $81
718e f0 02    beq $7192
7190 c6 81    dec $81
7192 20 fa f1 jsr $f1fa
7195 f0 03    beq $719a
7197 4c 90 ef jmp $ef90
719a a9 00    lda #$00
719c 85 81    sta $81
719e 20 fa f1 jsr $f1fa
71a1 d0 f4    bne $7197
71a3 4c f5 f1 jmp $f1f5
71a6 a9 01    lda #$01
71a8 0d f9 02 ora $02f9
71ab 8d f9 02 sta $02f9
71ae a5 86    lda $86
71b0 48       pha 
71b1 a9 01    lda #$01
71b3 85 86    sta $86
71b5 ad 85 fe lda $fe85
71b8 38       sec 
71b9 e5 86    sbc $86
71bb 85 80    sta $80
71bd 90 09    bcc $71c8
71bf f0 07    beq $71c8
71c1 20 11 f0 jsr $f011
71c4 b1 6d    lda ($6d),y
71c6 d0 1b    bne $71e3
71c8 ad 85 fe lda $fe85
71cb 18       clc 
71cc 65 86    adc $86
71ce 85 80    sta $80
71d0 e6 86    inc $86
71d2 cd 23 60 cmp $6023
71d5 90 05    bcc $71dc
71d7 a9 72    lda #$72
71d9 4c c8 c1 jmp $c1c8
71dc 20 11 f0 jsr $f011
71df b1 6d    lda ($6d),y
71e1 f0 d2    beq $71b5
71e3 68       pla 
71e4 85 86    sta $86
71e6 a9 00    lda #$00
71e8 85 81    sta $81
71ea 20 fa f1 jsr $f1fa
71ed f0 03    beq $71f2
71ef 4c 90 ef jmp $ef90
71f2 a9 71    lda #$71
71f4 20 45 e6 jsr $e645
71f7 20 11 f0 jsr $f011
71fa 98       tya 
71fb 48       pha 
71fc 20 20 f2 jsr $f220
71ff a5 80    lda $80
7201 20 4b f2 jsr $f24b
7204 8d 4e 02 sta $024e
7207 68       pla 
7208 85 6f    sta $6f
720a a5 81    lda $81
720c cd 4e 02 cmp $024e
720f b0 09    bcs $721a
7211 20 d5 ef jsr $efd5
7214 d0 06    bne $721c
7216 e6 81    inc $81
7218 d0 f0    bne $720a
721a a9 00    lda #$00
721c 60       rts 
721d a5 6f    lda $6f
721f 48       pha 
7220 a9 00    lda #$00
7222 85 6f    sta $6f
7224 ac 86 fe ldy $fe86
7227 88       dey 
7228 a2 07    ldx #$07
722a b1 6d    lda ($6d),y
722c 3d e9 ef and $efe9,x
722f f0 02    beq $7233
7231 e6 6f    inc $6f
7233 ca       dex 
7234 10 f4    bpl $722a
7236 88       dey 
7237 d0 ef    bne $7228
7239 b1 6d    lda ($6d),y
723b c5 6f    cmp $6f
723d d0 04    bne $7243
723f 68       pla 
7240 85 6f    sta $6f
7242 60       rts 
7243 a9 71    lda #$71
7245 20 45 e6 jsr $e645
7248 ae d6 fe ldx $fed6
724b dd d6 fe cmp $fed6,x
724e ca       dex 
724f b0 fa    bcs $724b
7251 bd d1 fe lda $fed1,x
7254 60       rts 
7255 60       rts 
7256 a9 6f    lda #$6f
7258 8d 02 1c sta $1c02
725b 29 f0    and #$f0
725d 8d 00 1c sta $1c00
7260 ad 0c 1c lda $1c0c
7263 29 fe    and #$fe
7265 09 0e    ora #$0e
7267 09 e0    ora #$e0
7269 8d 0c 1c sta $1c0c
726c a9 41    lda #$41
726e 8d 0b 1c sta $1c0b
7271 a9 00    lda #$00
7273 8d 06 1c sta $1c06
7276 a9 3a    lda #$3a
7278 8d 07 1c sta $1c07
727b 8d 05 1c sta $1c05
727e a9 7f    lda #$7f
7280 8d 0e 1c sta $1c0e
7283 a9 c0    lda #$c0
7285 8d 0d 1c sta $1c0d
7288 4c 00 a0 jmp $a000
728b a9 ff    lda #$ff
728d 85 3e    sta $3e
728f 85 51    sta $51
7291 a9 08    lda #$08
7293 85 39    sta $39
7295 a9 07    lda #$07
7297 85 47    sta $47
7299 a9 05    lda #$05
729b 85 62    sta $62
729d a9 fa    lda #$fa
729f 85 63    sta $63
72a1 a9 04    lda #$04
72a3 85 64    sta $64
72a5 a9 01    lda #$01
72a7 85 5e    sta $5e
72a9 a9 25    lda #$25
72ab 85 5f    sta $5f
72ad ba       tsx 
72ae 86 49    stx $49
72b0 ad 04 1c lda $1c04
72b3 ad 0c 1c lda $1c0c
72b6 09 0e    ora #$0e
72b8 8d 0c 1c sta $1c0c
72bb a0 05    ldy #$05
72bd b9 00 00 lda $0000,y
72c0 10 2e    bpl $72f0
72c2 c9 d0    cmp #$d0
72c4 d0 04    bne $72ca
72c6 98       tya 
72c7 4c 70 f3 jmp $f370
72ca 29 01    and #$01
72cc f0 07    beq $72d5
72ce 84 3f    sty $3f
72d0 a9 0f    lda #$0f
72d2 4c 69 f9 jmp $f969
72d5 aa       tax 
72d6 85 3d    sta $3d
72d8 c5 3e    cmp $3e
72da f0 0a    beq $72e6
72dc 20 7e f9 jsr $f97e
72df a5 3d    lda $3d
72e1 85 3e    sta $3e
72e3 4c 9c f9 jmp $f99c
72e6 a5 20    lda $20
72e8 30 03    bmi $72ed
72ea 0a       asl a
72eb 10 09    bpl $72f6
72ed 4c 9c f9 jmp $f99c
72f0 88       dey 
72f1 10 ca    bpl $72bd
72f3 4c 9c f9 jmp $f99c
72f6 a9 20    lda #$20
72f8 85 20    sta $20
72fa a0 05    ldy #$05
72fc 84 3f    sty $3f
72fe 20 93 f3 jsr $f393
7301 30 1a    bmi $731d
7303 c6 3f    dec $3f
7305 10 f7    bpl $72fe
7307 a4 41    ldy $41
7309 4c 0c a0 jmp $a00c
730c a5 42    lda $42
730e 85 4a    sta $4a
7310 06 4a    asl $4a
7312 a9 60    lda #$60
7314 85 20    sta $20
7316 b1 32    lda ($32),y
7318 85 22    sta $22
731a 4c 9c f9 jmp $f99c
731d 29 01    and #$01
731f c5 3d    cmp $3d
7321 d0 e0    bne $7303
7323 a5 22    lda $22
7325 f0 12    beq $7339
7327 38       sec 
7328 f1 32    sbc ($32),y
732a f0 0d    beq $7339
732c 49 ff    eor #$ff
732e 85 42    sta $42
7330 e6 42    inc $42
7332 a5 3f    lda $3f
7334 85 41    sta $41
7336 4c 06 f3 jmp $f306
7339 a2 04    ldx #$04
733b b1 32    lda ($32),y
733d 85 40    sta $40
733f dd d6 fe cmp $fed6,x
7342 ca       dex 
7343 b0 fa    bcs $733f
7345 bd d1 fe lda $fed1,x
7348 85 43    sta $43
734a 8a       txa 
734b 0a       asl a
734c 0a       asl a
734d 0a       asl a
734e 0a       asl a
734f 0a       asl a
7350 85 44    sta $44
7352 ad 00 1c lda $1c00
7355 29 9f    and #$9f
7357 05 44    ora $44
7359 4c 06 a0 jmp $a006
735c a6 3d    ldx $3d
735e a5 45    lda $45
7360 c9 40    cmp #$40
7362 f0 15    beq $7379
7364 c9 60    cmp #$60
7366 f0 03    beq $736b
7368 4c b1 f3 jmp $f3b1
736b a5 3f    lda $3f
736d 18       clc 
736e 69 03    adc #$03
7370 85 31    sta $31
7372 a9 00    lda #$00
7374 85 30    sta $30
7376 6c 30 00 jmp ($0030)
7379 20 d7 fa jsr $fad7
737c d0 0f    bne $738d
737e 2c 00 18 bit $1800
7381 30 01    bmi $7384
7383 60       rts 
7384 4c 5b e8 jmp $e85b
7387 85 4a    sta $4a
7389 a9 01    lda #$01
738b 85 22    sta $22
738d 4c 69 f9 jmp $f969
7390 a4 3f    ldy $3f
7392 b9 00 00 lda $0000,y
7395 48       pha 
7396 10 10    bpl $73a8
7398 29 78    and #$78
739a 85 45    sta $45
739c 98       tya 
739d 0a       asl a
739e 69 06    adc #$06
73a0 85 32    sta $32
73a2 98       tya 
73a3 18       clc 
73a4 69 03    adc #$03
73a6 85 31    sta $31
73a8 a0 00    ldy #$00
73aa 84 30    sty $30
73ac 68       pla 
73ad 60       rts 
73ae a2 5a    ldx #$5a
73b0 86 4b    stx $4b
73b2 a2 00    ldx #$00
73b4 a9 52    lda #$52
73b6 85 24    sta $24
73b8 20 56 f5 jsr $f556
73bb 50 fe    bvc $73bb
73bd b8       clv 
73be ad 01 1c lda $1c01
73c1 c5 24    cmp $24
73c3 d0 3f    bne $7404
73c5 50 fe    bvc $73c5
73c7 b8       clv 
73c8 ad 01 1c lda $1c01
73cb 95 25    sta $25,x
73cd e8       inx 
73ce e0 09    cpx #$09
73d0 d0 f3    bne $73c5
73d2 20 97 f4 jsr $f497
73d5 a0 04    ldy #$04
73d7 a9 00    lda #$00
73d9 59 16 00 eor $0016,y
73dc 88       dey 
73dd 10 fa    bpl $73d9
73df c9 00    cmp #$00
73e1 d0 38    bne $741b
73e3 a6 3e    ldx $3e
73e5 a5 18    lda $18
73e7 95 22    sta $22,x
73e9 a5 45    lda $45
73eb c9 30    cmp #$30
73ed f0 1e    beq $740d
73ef a5 3e    lda $3e
73f1 0a       asl a
73f2 a8       tay 
73f3 b9 12 00 lda $0012,y
73f6 c5 16    cmp $16
73f8 d0 1e    bne $7418
73fa b9 13 00 lda $0013,y
73fd c5 17    cmp $17
73ff d0 17    bne $7418
7401 4c 23 f4 jmp $f423
7404 c6 4b    dec $4b
7406 d0 b0    bne $73b8
7408 a9 02    lda #$02
740a 20 69 f9 jsr $f969
740d 4c 81 e7 jmp $e781
7410 ea       nop 
7411 a5 17    lda $17
7413 85 13    sta $13
7415 a9 01    lda #$01
7417 2c a9 0b bit $0ba9
741a 2c a9 09 bit $09a9
741d 4c 69 f9 jmp $f969
7420 a9 7f    lda #$7f
7422 85 4c    sta $4c
7424 a5 19    lda $19
7426 18       clc 
7427 69 02    adc #$02
7429 c5 43    cmp $43
742b 90 02    bcc $742f
742d e5 43    sbc $43
742f 85 4d    sta $4d
7431 a2 05    ldx #$05
7433 86 3f    stx $3f
7435 a2 ff    ldx #$ff
7437 20 93 f3 jsr $f393
743a 10 44    bpl $7480
743c 85 44    sta $44
743e 29 01    and #$01
7440 c5 3e    cmp $3e
7442 d0 3c    bne $7480
7444 a0 00    ldy #$00
7446 b1 32    lda ($32),y
7448 c5 40    cmp $40
744a d0 34    bne $7480
744c a5 45    lda $45
744e c9 60    cmp #$60
7450 f0 0c    beq $745e
7452 a0 01    ldy #$01
7454 38       sec 
7455 b1 32    lda ($32),y
7457 e5 4d    sbc $4d
7459 10 03    bpl $745e
745b 18       clc 
745c 65 43    adc $43
745e c5 4c    cmp $4c
7460 b0 1e    bcs $7480
7462 48       pha 
7463 a5 45    lda $45
7465 f0 14    beq $747b
7467 68       pla 
7468 c9 09    cmp #$09
746a 90 14    bcc $7480
746c c9 0c    cmp #$0c
746e b0 10    bcs $7480
7470 85 4c    sta $4c
7472 a5 3f    lda $3f
7474 aa       tax 
7475 69 03    adc #$03
7477 85 31    sta $31
7479 d0 05    bne $7480
747b 68       pla 
747c c9 06    cmp #$06
747e 90 f0    bcc $7470
7480 c6 3f    dec $3f
7482 10 b3    bpl $7437
7484 8a       txa 
7485 10 03    bpl $748a
7487 4c 9c f9 jmp $f99c
748a 86 3f    stx $3f
748c 20 93 f3 jsr $f393
748f a5 45    lda $45
7491 4c ca f4 jmp $f4ca
7494 a5 30    lda $30
7496 48       pha 
7497 a5 31    lda $31
7499 48       pha 
749a a9 24    lda #$24
749c 85 30    sta $30
749e a9 00    lda #$00
74a0 85 31    sta $31
74a2 a9 00    lda #$00
74a4 85 34    sta $34
74a6 20 e6 f7 jsr $f7e6
74a9 a5 55    lda $55
74ab 85 18    sta $18
74ad a5 54    lda $54
74af 85 19    sta $19
74b1 a5 53    lda $53
74b3 85 1a    sta $1a
74b5 20 e6 f7 jsr $f7e6
74b8 a5 52    lda $52
74ba 85 17    sta $17
74bc a5 53    lda $53
74be 85 16    sta $16
74c0 68       pla 
74c1 85 31    sta $31
74c3 68       pla 
74c4 85 30    sta $30
74c6 60       rts 
74c7 c9 00    cmp #$00
74c9 f0 03    beq $74ce
74cb 4c 6e f5 jmp $f56e
74ce 20 0a f5 jsr $f50a
74d1 50 fe    bvc $74d1
74d3 b8       clv 
74d4 ad 01 1c lda $1c01
74d7 91 30    sta ($30),y
74d9 c8       iny 
74da d0 f5    bne $74d1
74dc a0 ba    ldy #$ba
74de 50 fe    bvc $74de
74e0 b8       clv 
74e1 ad 01 1c lda $1c01
74e4 99 00 01 sta $0100,y
74e7 c8       iny 
74e8 d0 f4    bne $74de
74ea 20 e0 f8 jsr $f8e0
74ed a5 38    lda $38
74ef c5 47    cmp $47
74f1 f0 05    beq $74f8
74f3 a9 04    lda #$04
74f5 4c 69 f9 jmp $f969
74f8 20 e9 f5 jsr $f5e9
74fb c5 3a    cmp $3a
74fd f0 03    beq $7502
74ff a9 05    lda #$05
7501 2c a9 01 bit $01a9
7504 4c 69 f9 jmp $f969
7507 20 10 f5 jsr $f510
750a 4c 56 f5 jmp $f556
750d a5 3d    lda $3d
750f 0a       asl a
7510 aa       tax 
7511 b5 12    lda $12,x
7513 85 16    sta $16
7515 b5 13    lda $13,x
7517 85 17    sta $17
7519 a0 00    ldy #$00
751b b1 32    lda ($32),y
751d 85 18    sta $18
751f c8       iny 
7520 b1 32    lda ($32),y
7522 85 19    sta $19
7524 a9 00    lda #$00
7526 45 16    eor $16
7528 45 17    eor $17
752a 45 18    eor $18
752c 45 19    eor $19
752e 85 1a    sta $1a
7530 20 34 f9 jsr $f934
7533 a2 5a    ldx #$5a
7535 20 56 f5 jsr $f556
7538 a0 00    ldy #$00
753a 50 fe    bvc $753a
753c b8       clv 
753d ad 01 1c lda $1c01
7540 d9 24 00 cmp $0024,y
7543 d0 06    bne $754b
7545 c8       iny 
7546 c0 08    cpy #$08
7548 d0 f0    bne $753a
754a 60       rts 
754b ca       dex 
754c d0 e7    bne $7535
754e a9 02    lda #$02
7550 4c 69 f9 jmp $f969
7553 a9 d0    lda #$d0
7555 8d 05 18 sta $1805
7558 a9 03    lda #$03
755a 2c 05 18 bit $1805
755d 10 f1    bpl $7550
755f 2c 00 1c bit $1c00
7562 30 f6    bmi $755a
7564 ad 01 1c lda $1c01
7567 b8       clv 
7568 a0 00    ldy #$00
756a 60       rts 
756b c9 10    cmp #$10
756d f0 03    beq $7572
756f 4c 91 f6 jmp $f691
7572 20 e9 f5 jsr $f5e9
7575 85 3a    sta $3a
7577 ad 00 1c lda $1c00
757a 29 10    and #$10
757c d0 05    bne $7583
757e a9 08    lda #$08
7580 4c 69 f9 jmp $f969
7583 20 8f f7 jsr $f78f
7586 20 10 f5 jsr $f510
7589 a2 09    ldx #$09
758b 50 fe    bvc $758b
758d b8       clv 
758e ca       dex 
758f d0 fa    bne $758b
7591 a9 ff    lda #$ff
7593 8d 03 1c sta $1c03
7596 ad 0c 1c lda $1c0c
7599 29 1f    and #$1f
759b 09 c0    ora #$c0
759d 8d 0c 1c sta $1c0c
75a0 a9 ff    lda #$ff
75a2 a2 05    ldx #$05
75a4 8d 01 1c sta $1c01
75a7 b8       clv 
75a8 50 fe    bvc $75a8
75aa b8       clv 
75ab ca       dex 
75ac d0 fa    bne $75a8
75ae a0 bb    ldy #$bb
75b0 b9 00 01 lda $0100,y
75b3 50 fe    bvc $75b3
75b5 b8       clv 
75b6 8d 01 1c sta $1c01
75b9 c8       iny 
75ba d0 f4    bne $75b0
75bc b1 30    lda ($30),y
75be 50 fe    bvc $75be
75c0 b8       clv 
75c1 8d 01 1c sta $1c01
75c4 c8       iny 
75c5 d0 f5    bne $75bc
75c7 50 fe    bvc $75c7
75c9 ad 0c 1c lda $1c0c
75cc 09 e0    ora #$e0
75ce 8d 0c 1c sta $1c0c
75d1 a9 00    lda #$00
75d3 8d 03 1c sta $1c03
75d6 20 f2 f5 jsr $f5f2
75d9 a4 3f    ldy $3f
75db b9 00 00 lda $0000,y
75de 49 30    eor #$30
75e0 99 00 00 sta $0000,y
75e3 4c b1 f3 jmp $f3b1
75e6 a9 00    lda #$00
75e8 a8       tay 
75e9 51 30    eor ($30),y
75eb c8       iny 
75ec d0 fb    bne $75e9
75ee 60       rts 
75ef a9 00    lda #$00
75f1 85 2e    sta $2e
75f3 85 30    sta $30
75f5 85 4f    sta $4f
75f7 a5 31    lda $31
75f9 85 4e    sta $4e
75fb a9 01    lda #$01
75fd 85 31    sta $31
75ff 85 2f    sta $2f
7601 a9 bb    lda #$bb
7603 85 34    sta $34
7605 85 36    sta $36
7607 20 e6 f7 jsr $f7e6
760a a5 52    lda $52
760c 85 38    sta $38
760e a4 36    ldy $36
7610 a5 53    lda $53
7612 91 2e    sta ($2e),y
7614 c8       iny 
7615 a5 54    lda $54
7617 91 2e    sta ($2e),y
7619 c8       iny 
761a a5 55    lda $55
761c 91 2e    sta ($2e),y
761e c8       iny 
761f 84 36    sty $36
7621 20 e6 f7 jsr $f7e6
7624 a4 36    ldy $36
7626 a5 52    lda $52
7628 91 2e    sta ($2e),y
762a c8       iny 
762b a5 53    lda $53
762d 91 2e    sta ($2e),y
762f c8       iny 
7630 f0 0e    beq $7640
7632 a5 54    lda $54
7634 91 2e    sta ($2e),y
7636 c8       iny 
7637 a5 55    lda $55
7639 91 2e    sta ($2e),y
763b c8       iny 
763c 84 36    sty $36
763e d0 e1    bne $7621
7640 a5 54    lda $54
7642 91 30    sta ($30),y
7644 c8       iny 
7645 a5 55    lda $55
7647 91 30    sta ($30),y
7649 c8       iny 
764a 84 36    sty $36
764c 20 e6 f7 jsr $f7e6
764f a4 36    ldy $36
7651 a5 52    lda $52
7653 91 30    sta ($30),y
7655 c8       iny 
7656 a5 53    lda $53
7658 91 30    sta ($30),y
765a c8       iny 
765b a5 54    lda $54
765d 91 30    sta ($30),y
765f c8       iny 
7660 a5 55    lda $55
7662 91 30    sta ($30),y
7664 c8       iny 
7665 84 36    sty $36
7667 c0 bb    cpy #$bb
7669 90 e1    bcc $764c
766b a9 45    lda #$45
766d 85 2e    sta $2e
766f a5 31    lda $31
7671 85 2f    sta $2f
7673 a0 ba    ldy #$ba
7675 b1 30    lda ($30),y
7677 91 2e    sta ($2e),y
7679 88       dey 
767a d0 f9    bne $7675
767c b1 30    lda ($30),y
767e 91 2e    sta ($2e),y
7680 a2 bb    ldx #$bb
7682 bd 00 01 lda $0100,x
7685 91 30    sta ($30),y
7687 c8       iny 
7688 e8       inx 
7689 d0 f7    bne $7682
768b 86 50    stx $50
768d 60       rts 
768e c9 20    cmp #$20
7690 f0 03    beq $7695
7692 4c ca f6 jmp $f6ca
7695 20 e9 f5 jsr $f5e9
7698 85 3a    sta $3a
769a 20 8f f7 jsr $f78f
769d 20 0a f5 jsr $f50a
76a0 a0 bb    ldy #$bb
76a2 b9 00 01 lda $0100,y
76a5 50 fe    bvc $76a5
76a7 b8       clv 
76a8 4d 01 1c eor $1c01
76ab d0 15    bne $76c2
76ad c8       iny 
76ae d0 f2    bne $76a2
76b0 b1 30    lda ($30),y
76b2 50 fe    bvc $76b2
76b4 b8       clv 
76b5 4d 01 1c eor $1c01
76b8 d0 08    bne $76c2
76ba c8       iny 
76bb c0 fd    cpy #$fd
76bd d0 f1    bne $76b0
76bf 4c 18 f4 jmp $f418
76c2 a9 07    lda #$07
76c4 4c 69 f9 jmp $f969
76c7 20 10 f5 jsr $f510
76ca 4c 18 f4 jmp $f418
76cd a9 00    lda #$00
76cf 85 57    sta $57
76d1 85 5a    sta $5a
76d3 a4 34    ldy $34
76d5 a5 52    lda $52
76d7 29 f0    and #$f0
76d9 4a       lsr a
76da 4a       lsr a
76db 4a       lsr a
76dc 4a       lsr a
76dd aa       tax 
76de bd 7f f7 lda $f77f,x
76e1 0a       asl a
76e2 0a       asl a
76e3 0a       asl a
76e4 85 56    sta $56
76e6 a5 52    lda $52
76e8 29 0f    and #$0f
76ea aa       tax 
76eb bd 7f f7 lda $f77f,x
76ee 6a       ror a
76ef 66 57    ror $57
76f1 6a       ror a
76f2 66 57    ror $57
76f4 29 07    and #$07
76f6 05 56    ora $56
76f8 91 30    sta ($30),y
76fa c8       iny 
76fb a5 53    lda $53
76fd 29 f0    and #$f0
76ff 4a       lsr a
7700 4a       lsr a
7701 4a       lsr a
7702 4a       lsr a
7703 aa       tax 
7704 bd 7f f7 lda $f77f,x
7707 0a       asl a
7708 05 57    ora $57
770a 85 57    sta $57
770c a5 53    lda $53
770e 29 0f    and #$0f
7710 aa       tax 
7711 bd 7f f7 lda $f77f,x
7714 2a       rol a
7715 2a       rol a
7716 2a       rol a
7717 2a       rol a
7718 85 58    sta $58
771a 2a       rol a
771b 29 01    and #$01
771d 05 57    ora $57
771f 91 30    sta ($30),y
7721 c8       iny 
7722 a5 54    lda $54
7724 29 f0    and #$f0
7726 4a       lsr a
7727 4a       lsr a
7728 4a       lsr a
7729 4a       lsr a
772a aa       tax 
772b bd 7f f7 lda $f77f,x
772e 18       clc 
772f 6a       ror a
7730 05 58    ora $58
7732 91 30    sta ($30),y
7734 c8       iny 
7735 6a       ror a
7736 29 80    and #$80
7738 85 59    sta $59
773a a5 54    lda $54
773c 29 0f    and #$0f
773e aa       tax 
773f bd 7f f7 lda $f77f,x
7742 0a       asl a
7743 0a       asl a
7744 29 7c    and #$7c
7746 05 59    ora $59
7748 85 59    sta $59
774a a5 55    lda $55
774c 29 f0    and #$f0
774e 4a       lsr a
774f 4a       lsr a
7750 4a       lsr a
7751 4a       lsr a
7752 aa       tax 
7753 bd 7f f7 lda $f77f,x
7756 6a       ror a
7757 66 5a    ror $5a
7759 6a       ror a
775a 66 5a    ror $5a
775c 6a       ror a
775d 66 5a    ror $5a
775f 29 03    and #$03
7761 05 59    ora $59
7763 91 30    sta ($30),y
7765 c8       iny 
7766 d0 04    bne $776c
7768 a5 2f    lda $2f
776a 85 31    sta $31
776c a5 55    lda $55
776e 29 0f    and #$0f
7770 aa       tax 
7771 bd 7f f7 lda $f77f,x
7774 05 5a    ora $5a
7776 91 30    sta ($30),y
7778 c8       iny 
7779 84 34    sty $34
777b 60       rts 
777c 0a       asl a
777d 0b       ???
777e 12       ???
777f 13       ???
7780 0e 0f 16 asl $160f
7783 17       ???
7784 09 19    ora #$19
7786 1a       ???
7787 1b       ???
7788 0d 1d 1e ora $1e1d
778b 15 a9    ora $a9,x
778d 00       brk 
778e 85 30    sta $30
7790 85 2e    sta $2e
7792 85 36    sta $36
7794 a9 bb    lda #$bb
7796 85 34    sta $34
7798 85 50    sta $50
779a a5 31    lda $31
779c 85 2f    sta $2f
779e a9 01    lda #$01
77a0 85 31    sta $31
77a2 a5 47    lda $47
77a4 85 52    sta $52
77a6 a4 36    ldy $36
77a8 b1 2e    lda ($2e),y
77aa 85 53    sta $53
77ac c8       iny 
77ad b1 2e    lda ($2e),y
77af 85 54    sta $54
77b1 c8       iny 
77b2 b1 2e    lda ($2e),y
77b4 85 55    sta $55
77b6 c8       iny 
77b7 84 36    sty $36
77b9 20 d0 f6 jsr $f6d0
77bc a4 36    ldy $36
77be b1 2e    lda ($2e),y
77c0 85 52    sta $52
77c2 c8       iny 
77c3 f0 11    beq $77d6
77c5 b1 2e    lda ($2e),y
77c7 85 53    sta $53
77c9 c8       iny 
77ca b1 2e    lda ($2e),y
77cc 85 54    sta $54
77ce c8       iny 
77cf b1 2e    lda ($2e),y
77d1 85 55    sta $55
77d3 c8       iny 
77d4 d0 e1    bne $77b7
77d6 a5 3a    lda $3a
77d8 85 53    sta $53
77da a9 00    lda #$00
77dc 85 54    sta $54
77de 85 55    sta $55
77e0 4c d0 f6 jmp $f6d0
77e3 a4 34    ldy $34
77e5 b1 30    lda ($30),y
77e7 29 f8    and #$f8
77e9 4a       lsr a
77ea 4a       lsr a
77eb 4a       lsr a
77ec 85 56    sta $56
77ee b1 30    lda ($30),y
77f0 29 07    and #$07
77f2 0a       asl a
77f3 0a       asl a
77f4 85 57    sta $57
77f6 c8       iny 
77f7 d0 06    bne $77ff
77f9 a5 4e    lda $4e
77fb 85 31    sta $31
77fd a4 4f    ldy $4f
77ff b1 30    lda ($30),y
7801 29 c0    and #$c0
7803 2a       rol a
7804 2a       rol a
7805 2a       rol a
7806 05 57    ora $57
7808 85 57    sta $57
780a b1 30    lda ($30),y
780c 29 3e    and #$3e
780e 4a       lsr a
780f 85 58    sta $58
7811 b1 30    lda ($30),y
7813 29 01    and #$01
7815 0a       asl a
7816 0a       asl a
7817 0a       asl a
7818 0a       asl a
7819 85 59    sta $59
781b c8       iny 
781c b1 30    lda ($30),y
781e 29 f0    and #$f0
7820 4a       lsr a
7821 4a       lsr a
7822 4a       lsr a
7823 4a       lsr a
7824 05 59    ora $59
7826 85 59    sta $59
7828 b1 30    lda ($30),y
782a 29 0f    and #$0f
782c 0a       asl a
782d 85 5a    sta $5a
782f c8       iny 
7830 b1 30    lda ($30),y
7832 29 80    and #$80
7834 18       clc 
7835 2a       rol a
7836 2a       rol a
7837 29 01    and #$01
7839 05 5a    ora $5a
783b 85 5a    sta $5a
783d b1 30    lda ($30),y
783f 29 7c    and #$7c
7841 4a       lsr a
7842 4a       lsr a
7843 85 5b    sta $5b
7845 b1 30    lda ($30),y
7847 29 03    and #$03
7849 0a       asl a
784a 0a       asl a
784b 0a       asl a
784c 85 5c    sta $5c
784e c8       iny 
784f d0 06    bne $7857
7851 a5 4e    lda $4e
7853 85 31    sta $31
7855 a4 4f    ldy $4f
7857 b1 30    lda ($30),y
7859 29 e0    and #$e0
785b 2a       rol a
785c 2a       rol a
785d 2a       rol a
785e 2a       rol a
785f 05 5c    ora $5c
7861 85 5c    sta $5c
7863 b1 30    lda ($30),y
7865 29 1f    and #$1f
7867 85 5d    sta $5d
7869 c8       iny 
786a 84 34    sty $34
786c a6 56    ldx $56
786e bd a0 f8 lda $f8a0,x
7871 a6 57    ldx $57
7873 1d c0 f8 ora $f8c0,x
7876 85 52    sta $52
7878 a6 58    ldx $58
787a bd a0 f8 lda $f8a0,x
787d a6 59    ldx $59
787f 1d c0 f8 ora $f8c0,x
7882 85 53    sta $53
7884 a6 5a    ldx $5a
7886 bd a0 f8 lda $f8a0,x
7889 a6 5b    ldx $5b
788b 1d c0 f8 ora $f8c0,x
788e 85 54    sta $54
7890 a6 5c    ldx $5c
7892 bd a0 f8 lda $f8a0,x
7895 a6 5d    ldx $5d
7897 1d c0 f8 ora $f8c0,x
789a 85 55    sta $55
789c 60       rts 
789d ff       ???
789e ff       ???
789f ff       ???
78a0 ff       ???
78a1 ff       ???
78a2 ff       ???
78a3 ff       ???
78a4 ff       ???
78a5 ff       ???
78a6 80       ???
78a7 00       brk 
78a8 10 ff    bpl $78a9
78aa c0 40    cpy #$40
78ac 50 ff    bvc $78ad
78ae ff       ???
78af 20 30 ff jsr $ff30
78b2 f0 60    beq $7914
78b4 70 ff    bvs $78b5
78b6 90 a0    bcc $7858
78b8 b0 ff    bcs $78b9
78ba d0 e0    bne $789c
78bc ff       ???
78bd ff       ???
78be ff       ???
78bf ff       ???
78c0 ff       ???
78c1 ff       ???
78c2 ff       ???
78c3 ff       ???
78c4 ff       ???
78c5 ff       ???
78c6 08       php 
78c7 00       brk 
78c8 01 ff    ora ($ff,x)
78ca 0c       ???
78cb 04       ???
78cc 05 ff    ora $ff
78ce ff       ???
78cf 02       ???
78d0 03       ???
78d1 ff       ???
78d2 0f       ???
78d3 06 07    asl $07
78d5 ff       ???
78d6 09 0a    ora #$0a
78d8 0b       ???
78d9 ff       ???
78da 0d 0e ff ora $ff0e
78dd a9 00    lda #$00
78df 85 34    sta $34
78e1 85 2e    sta $2e
78e3 85 36    sta $36
78e5 a9 01    lda #$01
78e7 85 4e    sta $4e
78e9 a9 ba    lda #$ba
78eb 85 4f    sta $4f
78ed a5 31    lda $31
78ef 85 2f    sta $2f
78f1 20 e6 f7 jsr $f7e6
78f4 a5 52    lda $52
78f6 85 38    sta $38
78f8 a4 36    ldy $36
78fa a5 53    lda $53
78fc 91 2e    sta ($2e),y
78fe c8       iny 
78ff a5 54    lda $54
7901 91 2e    sta ($2e),y
7903 c8       iny 
7904 a5 55    lda $55
7906 91 2e    sta ($2e),y
7908 c8       iny 
7909 84 36    sty $36
790b 20 e6 f7 jsr $f7e6
790e a4 36    ldy $36
7910 a5 52    lda $52
7912 91 2e    sta ($2e),y
7914 c8       iny 
7915 f0 11    beq $7928
7917 a5 53    lda $53
7919 91 2e    sta ($2e),y
791b c8       iny 
791c a5 54    lda $54
791e 91 2e    sta ($2e),y
7920 c8       iny 
7921 a5 55    lda $55
7923 91 2e    sta ($2e),y
7925 c8       iny 
7926 d0 e1    bne $7909
7928 a5 53    lda $53
792a 85 3a    sta $3a
792c a5 2f    lda $2f
792e 85 31    sta $31
7930 60       rts 
7931 a5 31    lda $31
7933 85 2f    sta $2f
7935 a9 00    lda #$00
7937 85 31    sta $31
7939 a9 24    lda #$24
793b 85 34    sta $34
793d a5 39    lda $39
793f 85 52    sta $52
7941 a5 1a    lda $1a
7943 85 53    sta $53
7945 a5 19    lda $19
7947 85 54    sta $54
7949 a5 18    lda $18
794b 85 55    sta $55
794d 20 d0 f6 jsr $f6d0
7950 a5 17    lda $17
7952 85 52    sta $52
7954 a5 16    lda $16
7956 85 53    sta $53
7958 a9 00    lda #$00
795a 85 54    sta $54
795c 85 55    sta $55
795e 20 d0 f6 jsr $f6d0
7961 a5 2f    lda $2f
7963 85 31    sta $31
7965 60       rts 
7966 a4 3f    ldy $3f
7968 99 00 00 sta $0000,y
796b a5 50    lda $50
796d f0 03    beq $7972
796f 20 f2 f5 jsr $f5f2
7972 20 8f f9 jsr $f98f
7975 a6 49    ldx $49
7977 9a       txs 
7978 4c be f2 jmp $f2be
797b a9 a0    lda #$a0
797d 85 20    sta $20
797f ad 00 1c lda $1c00
7982 09 04    ora #$04
7984 8d 00 1c sta $1c00
7987 a9 1e    lda #$1e
7989 85 48    sta $48
798b 60       rts 
798c a6 3e    ldx $3e
798e a5 20    lda $20
7990 09 10    ora #$10
7992 85 20    sta $20
7994 a9 ff    lda #$ff
7996 85 48    sta $48
7998 60       rts 
7999 ad 07 1c lda $1c07
799c 8d 05 1c sta $1c05
799f ad 00 1c lda $1c00
79a2 29 10    and #$10
79a4 c5 1e    cmp $1e
79a6 85 1e    sta $1e
79a8 f0 04    beq $79ae
79aa 4c c5 fb jmp $fbc5
79ad ea       nop 
79ae ad fe 02 lda $02fe
79b1 f0 15    beq $79c8
79b3 c9 02    cmp #$02
79b5 d0 07    bne $79be
79b7 a9 00    lda #$00
79b9 8d fe 02 sta $02fe
79bc f0 0a    beq $79c8
79be 85 4a    sta $4a
79c0 a9 02    lda #$02
79c2 8d fe 02 sta $02fe
79c5 4c 2e fa jmp $fa2e
79c8 a6 3e    ldx $3e
79ca 30 07    bmi $79d3
79cc a5 20    lda $20
79ce a8       tay 
79cf c9 20    cmp #$20
79d1 d0 03    bne $79d6
79d3 4c be fa jmp $fabe
79d6 4c 09 a0 jmp $a009
79d9 ea       nop 
79da 98       tya 
79db 10 04    bpl $79e1
79dd 29 7f    and #$7f
79df 85 20    sta $20
79e1 29 10    and #$10
79e3 f0 12    beq $79f7
79e5 ad 00 1c lda $1c00
79e8 29 fb    and #$fb
79ea 8d 00 1c sta $1c00
79ed a9 ff    lda #$ff
79ef 85 3e    sta $3e
79f1 a9 00    lda #$00
79f3 85 20    sta $20
79f5 f0 dc    beq $79d3
79f7 98       tya 
79f8 29 40    and #$40
79fa d0 03    bne $79ff
79fc 4c be fa jmp $fabe
79ff 6c 62 00 jmp ($0062)
7a02 a5 4a    lda $4a
7a04 10 05    bpl $7a0b
7a06 49 ff    eor #$ff
7a08 18       clc 
7a09 69 01    adc #$01
7a0b c5 64    cmp $64
7a0d b0 0a    bcs $7a19
7a0f a9 3b    lda #$3b
7a11 85 62    sta $62
7a13 a9 fa    lda #$fa
7a15 85 63    sta $63
7a17 d0 12    bne $7a2b
7a19 e5 5e    sbc $5e
7a1b e5 5e    sbc $5e
7a1d 85 61    sta $61
7a1f a5 5e    lda $5e
7a21 85 60    sta $60
7a23 a9 7b    lda #$7b
7a25 85 62    sta $62
7a27 a9 fa    lda #$fa
7a29 85 63    sta $63
7a2b a5 4a    lda $4a
7a2d 10 31    bpl $7a60
7a2f e6 4a    inc $4a
7a31 ae 00 1c ldx $1c00
7a34 ca       dex 
7a35 4c 69 fa jmp $fa69
7a38 a5 4a    lda $4a
7a3a d0 ef    bne $7a2b
7a3c a9 4e    lda #$4e
7a3e 85 62    sta $62
7a40 a9 fa    lda #$fa
7a42 85 63    sta $63
7a44 a9 01    lda #$01
7a46 85 60    sta $60
7a48 4c be fa jmp $fabe
7a4b c6 60    dec $60
7a4d d0 6c    bne $7abb
7a4f a5 20    lda $20
7a51 29 bf    and #$bf
7a53 85 20    sta $20
7a55 a9 05    lda #$05
7a57 85 62    sta $62
7a59 a9 fa    lda #$fa
7a5b 85 63    sta $63
7a5d 4c be fa jmp $fabe
7a60 c6 4a    dec $4a
7a62 ae 00 1c ldx $1c00
7a65 e8       inx 
7a66 8a       txa 
7a67 29 03    and #$03
7a69 85 4b    sta $4b
7a6b ad 00 1c lda $1c00
7a6e 29 fc    and #$fc
7a70 05 4b    ora $4b
7a72 8d 00 1c sta $1c00
7a75 4c be fa jmp $fabe
7a78 38       sec 
7a79 ad 07 1c lda $1c07
7a7c e5 5f    sbc $5f
7a7e 8d 05 1c sta $1c05
7a81 c6 60    dec $60
7a83 d0 0c    bne $7a91
7a85 a5 5e    lda $5e
7a87 85 60    sta $60
7a89 a9 97    lda #$97
7a8b 85 62    sta $62
7a8d a9 fa    lda #$fa
7a8f 85 63    sta $63
7a91 4c 2e fa jmp $fa2e
7a94 c6 61    dec $61
7a96 d0 f9    bne $7a91
7a98 a9 a5    lda #$a5
7a9a 85 62    sta $62
7a9c a9 fa    lda #$fa
7a9e 85 63    sta $63
7aa0 d0 ef    bne $7a91
7aa2 ad 07 1c lda $1c07
7aa5 18       clc 
7aa6 65 5f    adc $5f
7aa8 8d 05 1c sta $1c05
7aab c6 60    dec $60
7aad d0 e2    bne $7a91
7aaf a9 4e    lda #$4e
7ab1 85 62    sta $62
7ab3 a9 fa    lda #$fa
7ab5 85 63    sta $63
7ab7 a9 01    lda #$01
7ab9 85 60    sta $60
7abb ad 0c 1c lda $1c0c
7abe 29 fd    and #$fd
7ac0 8d 0c 1c sta $1c0c
7ac3 60       rts 
7ac4 a5 51    lda $51
7ac6 10 2a    bpl $7af2
7ac8 a6 3d    ldx $3d
7aca 86 ff    stx $ff
7acc 20 d7 fa jsr $fad7
7acf 85 51    sta $51
7ad1 4c 9c f9 jmp $f99c
7ad4 a9 60    lda #$60
7ad6 95 20    sta $20,x
7ad8 b5 22    lda $22,x
7ada d0 02    bne $7ade
7adc a9 2c    lda #$2c
7ade 0a       asl a
7adf 49 ff    eor #$ff
7ae1 e9 00    sbc #$00
7ae3 85 4a    sta $4a
7ae5 ad 00 1c lda $1c00
7ae8 29 fc    and #$fc
7aea 8d 00 1c sta $1c00
7aed a9 01    lda #$01
7aef 95 22    sta $22,x
7af1 60       rts 
7af2 a0 00    ldy #$00
7af4 d1 32    cmp ($32),y
7af6 f0 05    beq $7afd
7af8 91 32    sta ($32),y
7afa 4c 1e fb jmp $fb1e
7afd a9 10    lda #$10
7aff 2c 00 1c bit $1c00
7b02 f0 10    beq $7b14
7b04 a9 05    lda #$05
7b06 8d 20 06 sta $0620
7b09 20 da fb jsr $fbda
7b0c 90 0a    bcc $7b18
7b0e ce 20 06 dec $0620
7b11 d0 f6    bne $7b09
7b13 24 4a    bit $4a
7b15 4c db fd jmp $fddb
7b18 4c 67 fc jmp $fc67
7b1b a0 00    ldy #$00
7b1d a5 22    lda $22
7b1f 38       sec 
7b20 f1 32    sbc ($32),y
7b22 f0 26    beq $7b4a
7b24 49 ff    eor #$ff
7b26 85 4a    sta $4a
7b28 e6 4a    inc $4a
7b2a 06 4a    asl $4a
7b2c 10 0d    bpl $7b3b
7b2e ae 00 1c ldx $1c00
7b31 ca       dex 
7b32 20 23 d9 jsr $d923
7b35 e6 4a    inc $4a
7b37 d0 f5    bne $7b2e
7b39 f0 0b    beq $7b46
7b3b ae 00 1c ldx $1c00
7b3e e8       inx 
7b3f 20 23 d9 jsr $d923
7b42 c6 4a    dec $4a
7b44 d0 f5    bne $7b3b
7b46 b1 32    lda ($32),y
7b48 85 22    sta $22
7b4a 4c 9c f9 jmp $f99c
7b4d ad 0c 1c lda $1c0c
7b50 29 1f    and #$1f
7b52 09 c0    ora #$c0
7b54 8d 0c 1c sta $1c0c
7b57 a9 ff    lda #$ff
7b59 8d 03 1c sta $1c03
7b5c 60       rts 
7b5d 48       pha 
7b5e d0 0d    bne $7b6d
7b60 ad 23 60 lda $6023
7b63 c9 29    cmp #$29
7b65 d0 0a    bne $7b71
7b67 a0 ac    ldy #$ac
7b69 68       pla 
7b6a 4c 7d d0 jmp $d07d
7b6d c0 c0    cpy #$c0
7b6f d0 f8    bne $7b69
7b71 4c 90 d0 jmp $d090
7b74 ad 04 60 lda $6004
7b77 c9 12    cmp #$12
7b79 f0 0e    beq $7b89
7b7b a2 24    ldx #$24
7b7d b9 02 02 lda $0202,y
7b80 c9 2b    cmp #$2b
7b82 d0 02    bne $7b86
7b84 a2 29    ldx #$29
7b86 8e 23 60 stx $6023
7b89 4c 07 d3 jmp $d307
7b8c 0a       asl a
7b8d c9 90    cmp #$90
7b8f 90 02    bcc $7b93
7b91 69 1b    adc #$1b
7b93 95 99    sta $99,x
7b95 60       rts 
7b96 8d 00 1c sta $1c00
7b99 a9 12    lda #$12
7b9b cd 04 60 cmp $6004
7b9e f0 05    beq $7ba5
7ba0 a9 24    lda #$24
7ba2 8d 23 60 sta $6023
7ba5 4c 2d eb jmp $eb2d
7ba8 a0 ac    ldy #$ac
7baa 98       tya 
7bab 4a       lsr a
7bac 4a       lsr a
7bad c0 90    cpy #$90
7baf f0 f7    beq $7ba8
7bb1 90 09    bcc $7bbc
7bb3 ae 23 60 ldx $6023
7bb6 e0 29    cpx #$29
7bb8 d0 05    bne $7bbf
7bba e9 07    sbc #$07
7bbc 4c d2 ee jmp $eed2
7bbf 4c 75 d0 jmp $d075
7bc2 b0 08    bcs $7bcc
7bc4 85 3e    sta $3e
7bc6 20 82 f9 jsr $f982
7bc9 20 91 f9 jsr $f991
7bcc a9 01    lda #$01
7bce 85 1c    sta $1c
7bd0 4a       lsr a
7bd1 8d 24 60 sta $6024
7bd4 4c b1 f9 jmp $f9b1
7bd7 a2 04    ldx #$04
7bd9 a5 51    lda $51
7bdb dd d7 fe cmp $fed7,x
7bde f0 11    beq $7bf1
7be0 ca       dex 
7be1 10 f8    bpl $7bdb
7be3 4a       lsr a
7be4 f0 02    beq $7be8
7be6 18       clc 
7be7 60       rts 
7be8 20 a3 fd jsr $fda3
7beb 20 00 fe jsr $fe00
7bee 20 56 f5 jsr $f556
7bf1 20 0e fe jsr $fe0e
7bf4 a9 ff    lda #$ff
7bf6 8d 01 1c sta $1c01
7bf9 50 fe    bvc $7bf9
7bfb b8       clv 
7bfc e8       inx 
7bfd e0 05    cpx #$05
7bff d0 f8    bne $7bf9
7c01 20 00 fe jsr $fe00
7c04 ad 00 1c lda $1c00
7c07 10 13    bpl $7c1c
7c09 50 f9    bvc $7c04
7c0b b8       clv 
7c0c e8       inx 
7c0d d0 f5    bne $7c04
7c0f c8       iny 
7c10 d0 f2    bne $7c04
7c12 a9 03    lda #$03
7c14 2c a9 04 bit $04a9
7c17 2c a9 05 bit $05a9
7c1a 38       sec 
7c1b 60       rts 
7c1c 8c 24 06 sty $0624
7c1f 8e 25 06 stx $0625
7c22 a6 43    ldx $43
7c24 a0 00    ldy #$00
7c26 98       tya 
7c27 18       clc 
7c28 69 63    adc #$63
7c2a 90 01    bcc $7c2d
7c2c c8       iny 
7c2d c8       iny 
7c2e ca       dex 
7c2f d0 f6    bne $7c27
7c31 49 ff    eor #$ff
7c33 38       sec 
7c34 69 00    adc #$00
7c36 18       clc 
7c37 6d 25 06 adc $0625
7c3a b0 03    bcs $7c3f
7c3c ce 24 06 dec $0624
7c3f aa       tax 
7c40 98       tya 
7c41 49 ff    eor #$ff
7c43 38       sec 
7c44 69 00    adc #$00
7c46 18       clc 
7c47 6d 24 06 adc $0624
7c4a 30 c9    bmi $7c15
7c4c a8       tay 
7c4d 8a       txa 
7c4e a2 00    ldx #$00
7c50 38       sec 
7c51 e5 43    sbc $43
7c53 b0 03    bcs $7c58
7c55 88       dey 
7c56 30 03    bmi $7c5b
7c58 e8       inx 
7c59 d0 f5    bne $7c50
7c5b 8e 26 06 stx $0626
7c5e e0 04    cpx #$04
7c60 90 b6    bcc $7c18
7c62 18       clc 
7c63 60       rts 
7c64 20 50 fb jsr $fb50
7c67 a9 55    lda #$55
7c69 8d 01 1c sta $1c01
7c6c a5 50    lda $50
7c6e d0 41    bne $7cb1
7c70 20 34 f9 jsr $f934
7c73 a9 00    lda #$00
7c75 85 31    sta $31
7c77 a9 29    lda #$29
7c79 85 34    sta $34
7c7b a5 13    lda $13
7c7d 85 52    sta $52
7c7f a5 12    lda $12
7c81 85 53    sta $53
7c83 a9 0f    lda #$0f
7c85 ae 23 60 ldx $6023
7c88 e0 29    cpx #$29
7c8a d0 02    bne $7c8e
7c8c a9 0d    lda #$0d
7c8e 85 54    sta $54
7c90 a9 0f    lda #$0f
7c92 85 55    sta $55
7c94 20 61 f9 jsr $f961
7c97 a9 4b    lda #$4b
7c99 8d 00 05 sta $0500
7c9c a2 01    ldx #$01
7c9e 8a       txa 
7c9f 9d 00 05 sta $0500,x
7ca2 e8       inx 
7ca3 d0 fa    bne $7c9f
7ca5 a9 05    lda #$05
7ca7 85 31    sta $31
7ca9 20 e9 f5 jsr $f5e9
7cac 85 3a    sta $3a
7cae 20 8f f7 jsr $f78f
7cb1 a2 00    ldx #$00
7cb3 8e 28 06 stx $0628
7cb6 50 fe    bvc $7cb6
7cb8 b8       clv 
7cb9 e8       inx 
7cba 10 fa    bpl $7cb6
7cbc a9 ff    lda #$ff
7cbe 8d 01 1c sta $1c01
7cc1 20 21 a0 jsr $a021
7cc4 a2 00    ldx #$00
7cc6 50 fe    bvc $7cc6
7cc8 b8       clv 
7cc9 b5 24    lda $24,x
7ccb 8d 01 1c sta $1c01
7cce e8       inx 
7ccf e0 0a    cpx #$0a
7cd1 d0 f3    bne $7cc6
7cd3 ca       dex 
7cd4 50 fe    bvc $7cd4
7cd6 b8       clv 
7cd7 a0 55    ldy #$55
7cd9 8c 01 1c sty $1c01
7cdc ca       dex 
7cdd d0 f5    bne $7cd4
7cdf a9 ff    lda #$ff
7ce1 a2 05    ldx #$05
7ce3 50 fe    bvc $7ce3
7ce5 b8       clv 
7ce6 8d 01 1c sta $1c01
7ce9 ca       dex 
7cea d0 f7    bne $7ce3
7cec a2 bb    ldx #$bb
7cee 50 fe    bvc $7cee
7cf0 b8       clv 
7cf1 bd 00 01 lda $0100,x
7cf4 8d 01 1c sta $1c01
7cf7 e8       inx 
7cf8 d0 f4    bne $7cee
7cfa 50 fe    bvc $7cfa
7cfc b8       clv 
7cfd bd 00 05 lda $0500,x
7d00 8d 01 1c sta $1c01
7d03 e8       inx 
7d04 d0 f4    bne $7cfa
7d06 ae 26 06 ldx $0626
7d09 50 fe    bvc $7d09
7d0b b8       clv 
7d0c 8c 01 1c sty $1c01
7d0f ca       dex 
7d10 d0 f7    bne $7d09
7d12 ee 28 06 inc $0628
7d15 ad 28 06 lda $0628
7d18 c5 43    cmp $43
7d1a d0 a0    bne $7cbc
7d1c 50 fe    bvc $7d1c
7d1e b8       clv 
7d1f 50 fe    bvc $7d1f
7d21 b8       clv 
7d22 20 00 fe jsr $fe00
7d25 ad 02 60 lda $6002
7d28 c9 12    cmp #$12
7d2a f0 51    beq $7d7d
7d2c a9 c8    lda #$c8
7d2e 8d 23 06 sta $0623
7d31 a9 00    lda #$00
7d33 8d 28 06 sta $0628
7d36 20 21 a0 jsr $a021
7d39 20 56 f5 jsr $f556
7d3c a2 00    ldx #$00
7d3e 50 fe    bvc $7d3e
7d40 b8       clv 
7d41 ad 01 1c lda $1c01
7d44 d5 24    cmp $24,x
7d46 d0 41    bne $7d89
7d48 e8       inx 
7d49 e0 0a    cpx #$0a
7d4b d0 f1    bne $7d3e
7d4d ee 28 06 inc $0628
7d50 20 21 a0 jsr $a021
7d53 20 56 f5 jsr $f556
7d56 a2 bb    ldx #$bb
7d58 50 fe    bvc $7d58
7d5a b8       clv 
7d5b ad 01 1c lda $1c01
7d5e dd 00 01 cmp $0100,x
7d61 d0 26    bne $7d89
7d63 e8       inx 
7d64 d0 f2    bne $7d58
7d66 50 fe    bvc $7d66
7d68 b8       clv 
7d69 ad 01 1c lda $1c01
7d6c dd 00 05 cmp $0500,x
7d6f d0 18    bne $7d89
7d71 e8       inx 
7d72 e0 fc    cpx #$fc
7d74 d0 f0    bne $7d66
7d76 ad 28 06 lda $0628
7d79 c5 43    cmp $43
7d7b d0 bc    bne $7d39
7d7d e6 51    inc $51
7d7f a5 51    lda $51
7d81 cd 23 60 cmp $6023
7d84 b0 0d    bcs $7d93
7d86 4c 9c f9 jmp $f99c
7d89 ce 23 06 dec $0623
7d8c d0 a3    bne $7d31
7d8e a9 06    lda #$06
7d90 4c 11 fb jmp $fb11
7d93 a9 ff    lda #$ff
7d95 85 51    sta $51
7d97 a9 00    lda #$00
7d99 85 50    sta $50
7d9b a9 01    lda #$01
7d9d 4c 69 f9 jmp $f969
7da0 ad 0c 1c lda $1c0c
7da3 29 1f    and #$1f
7da5 09 c0    ora #$c0
7da7 8d 0c 1c sta $1c0c
7daa a9 ff    lda #$ff
7dac 8d 03 1c sta $1c03
7daf 8d 01 1c sta $1c01
7db2 a2 21    ldx #$21
7db4 a0 00    ldy #$00
7db6 50 fe    bvc $7db6
7db8 b8       clv 
7db9 88       dey 
7dba d0 fa    bne $7db6
7dbc ca       dex 
7dbd d0 f7    bne $7db6
7dbf 60       rts 
7dc0 ae 21 06 ldx $0621
7dc3 ac 22 06 ldy $0622
7dc6 50 fe    bvc $7dc6
7dc8 b8       clv 
7dc9 ca       dex 
7dca d0 fa    bne $7dc6
7dcc 88       dey 
7dcd 10 f7    bpl $7dc6
7dcf 60       rts 
7dd0 ce 20 06 dec $0620
7dd3 f0 03    beq $7dd8
7dd5 4c 9c f9 jmp $f99c
7dd8 a0 ff    ldy #$ff
7dda 84 51    sty $51
7ddc c8       iny 
7ddd 84 50    sty $50
7ddf 4c 69 f9 jmp $f969
7de2 b9 00 03 lda $0300,y
7de5 99 45 03 sta $0345,y
7de8 88       dey 
7de9 d0 f7    bne $7de2
7deb ad 00 03 lda $0300
7dee 8d 45 03 sta $0345
7df1 60       rts 
7df2 a0 44    ldy #$44
7df4 b9 bb 01 lda $01bb,y
7df7 91 30    sta ($30),y
7df9 88       dey 
7dfa 10 f8    bpl $7df4
7dfc 60       rts 
7dfd ad 0c 1c lda $1c0c
7e00 09 e0    ora #$e0
7e02 8d 0c 1c sta $1c0c
7e05 a9 00    lda #$00
7e07 8d 03 1c sta $1c03
7e0a 60       rts 
7e0b ad 0c 1c lda $1c0c
7e0e 29 1f    and #$1f
7e10 09 c0    ora #$c0
7e12 8d 0c 1c sta $1c0c
7e15 a9 ff    lda #$ff
7e17 8d 03 1c sta $1c03
7e1a a9 55    lda #$55
7e1c 8d 01 1c sta $1c01
7e1f a2 21    ldx #$21
7e21 a0 00    ldy #$00
7e23 50 fe    bvc $7e23
7e25 b8       clv 
7e26 88       dey 
7e27 d0 fa    bne $7e23
7e29 ca       dex 
7e2a d0 f7    bne $7e23
7e2c 60       rts 
7e2d a9 00    lda #$00
7e2f 85 30    sta $30
7e31 85 2e    sta $2e
7e33 85 36    sta $36
7e35 a9 bb    lda #$bb
7e37 85 34    sta $34
7e39 a5 31    lda $31
7e3b 85 2f    sta $2f
7e3d a9 01    lda #$01
7e3f 85 31    sta $31
7e41 a4 36    ldy $36
7e43 b1 2e    lda ($2e),y
7e45 85 52    sta $52
7e47 c8       iny 
7e48 b1 2e    lda ($2e),y
7e4a 85 53    sta $53
7e4c c8       iny 
7e4d b1 2e    lda ($2e),y
7e4f 85 54    sta $54
7e51 c8       iny 
7e52 b1 2e    lda ($2e),y
7e54 85 55    sta $55
7e56 c8       iny 
7e57 f0 08    beq $7e61
7e59 84 36    sty $36
7e5b 20 d0 f6 jsr $f6d0
7e5e 4c 44 fe jmp $fe44
7e61 4c d0 f6 jmp $f6d0
7e64 48       pha 
7e65 8a       txa 
7e66 48       pha 
7e67 98       tya 
7e68 48       pha 
7e69 ad 0d 18 lda $180d
7e6c 29 02    and #$02
7e6e f0 03    beq $7e73
7e70 20 53 e8 jsr $e853
7e73 ad 0d 1c lda $1c0d
7e76 0a       asl a
7e77 10 03    bpl $7e7c
7e79 20 b0 f2 jsr $f2b0
7e7c 68       pla 
7e7d a8       tay 
7e7e 68       pla 
7e7f aa       tax 
7e80 68       pla 
7e81 40       rti 
7e82 12       ???
7e83 04       ???
7e84 04       ???
7e85 90 56    bcc $7edd
7e87 49 58    eor #$58
7e89 4d 42 55 eor $5542
7e8c 50 26    bvc $7eb4
7e8e 43       ???
7e8f 52       ???
7e90 53       ???
7e91 4e 84 05 lsr $0584
7e94 03       ???
7e95 f8       sed 
7e96 1b       ???
7e97 5c       ???
7e98 07       ???
7e99 a3       ???
7e9a f0 88    beq $7e24
7e9c 23       ???
7e9d 0d ed d0 ora $d0ed
7ea0 a0 ca    ldy #$ca
7ea2 cc cb e2 cpy $e2cb
7ea5 e7       ???
7ea6 c8       iny 
7ea7 ca       dex 
7ea8 c8       iny 
7ea9 ee 51 dd inc $dd51
7eac 1c       ???
7ead 9e       ???
7eae 1c       ???
7eaf 52       ???
7eb0 57       ???
7eb1 41 4d    eor ($4d,x)
7eb3 44       ???
7eb4 53       ???
7eb5 50 55    bvc $7f0c
7eb7 4c 44 53 jmp $5344
7eba 50 55    bvc $7f11
7ebc 52       ???
7ebd 45 45    eor $45
7ebf 52       ???
7ec0 53       ???
7ec1 45 4c    eor $4c
7ec3 51 47    eor ($47),y
7ec5 52       ???
7ec6 4c 08 00 jmp $0008
7ec9 00       brk 
7eca 3f       ???
7ecb 7f       ???
7ecc bf       ???
7ecd ff       ???
7ece 11 12    ora ($12),y
7ed0 13       ???
7ed1 15 41    ora $41,x
7ed3 04       ???
7ed4 29 1f    and #$1f
7ed6 19 12 01 ora $0112,y
7ed9 ff       ???
7eda ff       ???
7edb 01 00    ora ($00,x)
7edd 03       ???
7ede 04       ???
7edf 05 06    ora $06
7ee1 07       ???
7ee2 07       ???
7ee3 b1 6c    lda ($6c),y
7ee5 65 00    adc $00
7ee7 8d 00 1c sta $1c00
7eea 8d 02 1c sta $1c02
7eed 4c 7d ea jmp $ea7d
7ef0 8a       txa 
7ef1 a2 05    ldx #$05
7ef3 ca       dex 
7ef4 d0 fd    bne $7ef3
7ef6 aa       tax 
7ef7 60       rts 
7ef8 20 ae e9 jsr $e9ae
7efb 4c 9c e9 jmp $e99c
7efe ad 02 02 lda $0202
7f01 c9 2d    cmp #$2d
7f03 f0 05    beq $7f0a
7f05 38       sec 
7f06 e9 2b    sbc #$2b
7f08 d0 da    bne $7ee4
7f0a 85 23    sta $23
7f0c 60       rts 
7f0d a9 5f    lda #$5f
7f0f 8d 21 60 sta $6021
7f12 a9 f3    lda #$f3
7f14 8d 22 60 sta $6022
7f17 60       rts 
7f18 ad bd aa lda $aabd
7f1b c1 cf    cmp ($cf,x)
7f1d ad 00 18 lda $1800
7f20 29 01    and #$01
7f22 d0 f9    bne $7f1d
7f24 a9 01    lda #$01
7f26 8d 05 18 sta $1805
7f29 4c df e9 jmp $e9df
7f2c 8d 02 1c sta $1c02
7f2f ad 00 1c lda $1c00
7f32 29 10    and #$10
7f34 d0 31    bne $7f67
7f36 a2 03    ldx #$03
7f38 b5 00    lda $00,x
7f3a 9d 00 70 sta $7000,x
7f3d ca       dex 
7f3e 10 f8    bpl $7f38
7f40 a9 00    lda #$00
7f42 85 00    sta $00
7f44 85 01    sta $01
7f46 85 02    sta $02
7f48 a9 70    lda #$70
7f4a 85 03    sta $03
7f4c a2 08    ldx #$08
7f4e a0 04    ldy #$04
7f50 b1 00    lda ($00),y
7f52 91 02    sta ($02),y
7f54 c8       iny 
7f55 d0 f9    bne $7f50
7f57 e6 01    inc $01
7f59 e6 03    inc $03
7f5b ca       dex 
7f5c d0 f2    bne $7f50
7f5e bd 00 60 lda $6000,x
7f61 9d 00 78 sta $7800,x
7f64 e8       inx 
7f65 d0 f7    bne $7f5e
7f67 4c bb ea jmp $eabb
7f6a a6 1d    ldx $1d
7f6c d0 02    bne $7f70
7f6e e6 1d    inc $1d
7f70 a2 00    ldx #$00
7f72 8e 03 18 stx $1803
7f75 f0 96    beq $7f0d
7f77 4c a3 c1 jmp $c1a3
7f7a ae 00 02 ldx $0200
7f7d e0 58    cpx #$58
7f7f d0 f6    bne $7f77
7f81 ae 01 02 ldx $0201
7f84 e0 55    cpx #$55
7f86 f0 23    beq $7fab
7f88 a9 30    lda #$30
7f8a 20 a3 c1 jsr $c1a3
7f8d a9 30    lda #$30
7f8f 8d 43 02 sta $0243
7f92 a0 0d    ldy #$0d
7f94 b9 a0 ff lda $ffa0,y
7f97 91 a5    sta ($a5),y
7f99 88       dey 
7f9a 10 f8    bpl $7f94
7f9c 60       rts 
7f9d 38       sec 
7f9e 2c 46 49 bit $4946
7fa1 4c 45 53 jmp $5345
7fa4 20 4c 4f jsr $4f4c
7fa7 43       ???
7fa8 4b       ???
7fa9 45 44    eor $44
7fab a9 39    lda #$39
7fad 20 a3 c1 jsr $c1a3
7fb0 a9 30    lda #$30
7fb2 8d 43 02 sta $0243
7fb5 a0 0f    ldy #$0f
7fb7 b9 be ff lda $ffbe,y
7fba 91 a5    sta ($a5),y
7fbc 88       dey 
7fbd c0 06    cpy #$06
7fbf d0 f6    bne $7fb7
7fc1 60       rts 
7fc2 53       ???
7fc3 20 55 4e jsr $4e55
7fc6 4c 4f 43 jmp $434f
7fc9 4b       ???
7fca 45 0a    eor $0a
7fcc c9 90    cmp #$90
7fce 90 02    bcc $7fd2
7fd0 69 1b    adc #$1b
7fd2 85 6d    sta $6d
7fd4 4c 28 ef jmp $ef28
7fd7 aa       tax 
7fd8 aa       tax 
7fd9 aa       tax 
7fda aa       tax 
7fdb aa       tax 
7fdc aa       tax 
7fdd 4c 1e fb jmp $fb1e
7fe0 4c da fb jmp $fbda
7fe3 c6 c8    dec $c8
7fe5 8f       ???
7fe6 f9 5f cd sbc $cd5f,y
7fe9 97       ???
7fea cd 00 05 cmp $0500
7fed 03       ???
7fee 05 06    ora $06
7ff0 05 09    ora $09
7ff2 05 0c    ora $0c
7ff4 05 0f    ora $0f
7ff6 05 01    ora $01
7ff8 ff       ???
7ff9 a0 ea    ldy #$ea
7ffb 67       ???
7ffc fe 00 00 inc $0000,x
